ARM GAS  /tmp/cckZR06T.s 			page 1


   1              		.cpu cortex-m4
   2              		.eabi_attribute 27, 1
   3              		.eabi_attribute 28, 1
   4              		.eabi_attribute 20, 1
   5              		.eabi_attribute 21, 1
   6              		.eabi_attribute 23, 3
   7              		.eabi_attribute 24, 1
   8              		.eabi_attribute 25, 1
   9              		.eabi_attribute 26, 1
  10              		.eabi_attribute 30, 1
  11              		.eabi_attribute 34, 1
  12              		.eabi_attribute 18, 4
  13              		.file	"stm32l4xx_hal_hcd.c"
  14              		.text
  15              	.Ltext0:
  16              		.cfi_sections	.debug_frame
  17              		.section	.text.HCD_RXQLVL_IRQHandler,"ax",%progbits
  18              		.align	1
  19              		.syntax unified
  20              		.thumb
  21              		.thumb_func
  22              		.fpu fpv4-sp-d16
  24              	HCD_RXQLVL_IRQHandler:
  25              	.LFB148:
  26              		.file 1 "Drivers/STM32L4xx_HAL_Driver/Src/stm32l4xx_hal_hcd.c"
   1:Drivers/STM32L4xx_HAL_Driver/Src/stm32l4xx_hal_hcd.c **** /**
   2:Drivers/STM32L4xx_HAL_Driver/Src/stm32l4xx_hal_hcd.c ****   ******************************************************************************
   3:Drivers/STM32L4xx_HAL_Driver/Src/stm32l4xx_hal_hcd.c ****   * @file    stm32l4xx_hal_hcd.c
   4:Drivers/STM32L4xx_HAL_Driver/Src/stm32l4xx_hal_hcd.c ****   * @author  MCD Application Team
   5:Drivers/STM32L4xx_HAL_Driver/Src/stm32l4xx_hal_hcd.c ****   * @brief   HCD HAL module driver.
   6:Drivers/STM32L4xx_HAL_Driver/Src/stm32l4xx_hal_hcd.c ****   *          This file provides firmware functions to manage the following
   7:Drivers/STM32L4xx_HAL_Driver/Src/stm32l4xx_hal_hcd.c ****   *          functionalities of the USB Peripheral Controller:
   8:Drivers/STM32L4xx_HAL_Driver/Src/stm32l4xx_hal_hcd.c ****   *           + Initialization and de-initialization functions
   9:Drivers/STM32L4xx_HAL_Driver/Src/stm32l4xx_hal_hcd.c ****   *           + IO operation functions
  10:Drivers/STM32L4xx_HAL_Driver/Src/stm32l4xx_hal_hcd.c ****   *           + Peripheral Control functions
  11:Drivers/STM32L4xx_HAL_Driver/Src/stm32l4xx_hal_hcd.c ****   *           + Peripheral State functions
  12:Drivers/STM32L4xx_HAL_Driver/Src/stm32l4xx_hal_hcd.c ****   *
  13:Drivers/STM32L4xx_HAL_Driver/Src/stm32l4xx_hal_hcd.c ****   @verbatim
  14:Drivers/STM32L4xx_HAL_Driver/Src/stm32l4xx_hal_hcd.c ****   ==============================================================================
  15:Drivers/STM32L4xx_HAL_Driver/Src/stm32l4xx_hal_hcd.c ****                     ##### How to use this driver #####
  16:Drivers/STM32L4xx_HAL_Driver/Src/stm32l4xx_hal_hcd.c ****   ==============================================================================
  17:Drivers/STM32L4xx_HAL_Driver/Src/stm32l4xx_hal_hcd.c ****   [..]
  18:Drivers/STM32L4xx_HAL_Driver/Src/stm32l4xx_hal_hcd.c ****     (#)Declare a HCD_HandleTypeDef handle structure, for example:
  19:Drivers/STM32L4xx_HAL_Driver/Src/stm32l4xx_hal_hcd.c ****        HCD_HandleTypeDef  hhcd;
  20:Drivers/STM32L4xx_HAL_Driver/Src/stm32l4xx_hal_hcd.c **** 
  21:Drivers/STM32L4xx_HAL_Driver/Src/stm32l4xx_hal_hcd.c ****     (#)Fill parameters of Init structure in HCD handle
  22:Drivers/STM32L4xx_HAL_Driver/Src/stm32l4xx_hal_hcd.c **** 
  23:Drivers/STM32L4xx_HAL_Driver/Src/stm32l4xx_hal_hcd.c ****     (#)Call HAL_HCD_Init() API to initialize the HCD peripheral (Core, Host core, ...)
  24:Drivers/STM32L4xx_HAL_Driver/Src/stm32l4xx_hal_hcd.c **** 
  25:Drivers/STM32L4xx_HAL_Driver/Src/stm32l4xx_hal_hcd.c ****     (#)Initialize the HCD low level resources through the HAL_HCD_MspInit() API:
  26:Drivers/STM32L4xx_HAL_Driver/Src/stm32l4xx_hal_hcd.c ****         (##) Enable the HCD/USB Low Level interface clock using the following macros
  27:Drivers/STM32L4xx_HAL_Driver/Src/stm32l4xx_hal_hcd.c ****              (+++) __HAL_RCC_USB_OTG_FS_CLK_ENABLE();
  28:Drivers/STM32L4xx_HAL_Driver/Src/stm32l4xx_hal_hcd.c ****         (##) Initialize the related GPIO clocks
  29:Drivers/STM32L4xx_HAL_Driver/Src/stm32l4xx_hal_hcd.c ****         (##) Configure HCD pin-out
  30:Drivers/STM32L4xx_HAL_Driver/Src/stm32l4xx_hal_hcd.c ****         (##) Configure HCD NVIC interrupt
  31:Drivers/STM32L4xx_HAL_Driver/Src/stm32l4xx_hal_hcd.c **** 
  32:Drivers/STM32L4xx_HAL_Driver/Src/stm32l4xx_hal_hcd.c ****     (#)Associate the Upper USB Host stack to the HAL HCD Driver:
ARM GAS  /tmp/cckZR06T.s 			page 2


  33:Drivers/STM32L4xx_HAL_Driver/Src/stm32l4xx_hal_hcd.c ****         (##) hhcd.pData = phost;
  34:Drivers/STM32L4xx_HAL_Driver/Src/stm32l4xx_hal_hcd.c **** 
  35:Drivers/STM32L4xx_HAL_Driver/Src/stm32l4xx_hal_hcd.c ****     (#)Enable HCD transmission and reception:
  36:Drivers/STM32L4xx_HAL_Driver/Src/stm32l4xx_hal_hcd.c ****         (##) HAL_HCD_Start();
  37:Drivers/STM32L4xx_HAL_Driver/Src/stm32l4xx_hal_hcd.c **** 
  38:Drivers/STM32L4xx_HAL_Driver/Src/stm32l4xx_hal_hcd.c ****   @endverbatim
  39:Drivers/STM32L4xx_HAL_Driver/Src/stm32l4xx_hal_hcd.c ****   ******************************************************************************
  40:Drivers/STM32L4xx_HAL_Driver/Src/stm32l4xx_hal_hcd.c ****   * @attention
  41:Drivers/STM32L4xx_HAL_Driver/Src/stm32l4xx_hal_hcd.c ****   *
  42:Drivers/STM32L4xx_HAL_Driver/Src/stm32l4xx_hal_hcd.c ****   * <h2><center>&copy; COPYRIGHT(c) 2017 STMicroelectronics</center></h2>
  43:Drivers/STM32L4xx_HAL_Driver/Src/stm32l4xx_hal_hcd.c ****   *
  44:Drivers/STM32L4xx_HAL_Driver/Src/stm32l4xx_hal_hcd.c ****   * Redistribution and use in source and binary forms, with or without modification,
  45:Drivers/STM32L4xx_HAL_Driver/Src/stm32l4xx_hal_hcd.c ****   * are permitted provided that the following conditions are met:
  46:Drivers/STM32L4xx_HAL_Driver/Src/stm32l4xx_hal_hcd.c ****   *   1. Redistributions of source code must retain the above copyright notice,
  47:Drivers/STM32L4xx_HAL_Driver/Src/stm32l4xx_hal_hcd.c ****   *      this list of conditions and the following disclaimer.
  48:Drivers/STM32L4xx_HAL_Driver/Src/stm32l4xx_hal_hcd.c ****   *   2. Redistributions in binary form must reproduce the above copyright notice,
  49:Drivers/STM32L4xx_HAL_Driver/Src/stm32l4xx_hal_hcd.c ****   *      this list of conditions and the following disclaimer in the documentation
  50:Drivers/STM32L4xx_HAL_Driver/Src/stm32l4xx_hal_hcd.c ****   *      and/or other materials provided with the distribution.
  51:Drivers/STM32L4xx_HAL_Driver/Src/stm32l4xx_hal_hcd.c ****   *   3. Neither the name of STMicroelectronics nor the names of its contributors
  52:Drivers/STM32L4xx_HAL_Driver/Src/stm32l4xx_hal_hcd.c ****   *      may be used to endorse or promote products derived from this software
  53:Drivers/STM32L4xx_HAL_Driver/Src/stm32l4xx_hal_hcd.c ****   *      without specific prior written permission.
  54:Drivers/STM32L4xx_HAL_Driver/Src/stm32l4xx_hal_hcd.c ****   *
  55:Drivers/STM32L4xx_HAL_Driver/Src/stm32l4xx_hal_hcd.c ****   * THIS SOFTWARE IS PROVIDED BY THE COPYRIGHT HOLDERS AND CONTRIBUTORS "AS IS"
  56:Drivers/STM32L4xx_HAL_Driver/Src/stm32l4xx_hal_hcd.c ****   * AND ANY EXPRESS OR IMPLIED WARRANTIES, INCLUDING, BUT NOT LIMITED TO, THE
  57:Drivers/STM32L4xx_HAL_Driver/Src/stm32l4xx_hal_hcd.c ****   * IMPLIED WARRANTIES OF MERCHANTABILITY AND FITNESS FOR A PARTICULAR PURPOSE ARE
  58:Drivers/STM32L4xx_HAL_Driver/Src/stm32l4xx_hal_hcd.c ****   * DISCLAIMED. IN NO EVENT SHALL THE COPYRIGHT HOLDER OR CONTRIBUTORS BE LIABLE
  59:Drivers/STM32L4xx_HAL_Driver/Src/stm32l4xx_hal_hcd.c ****   * FOR ANY DIRECT, INDIRECT, INCIDENTAL, SPECIAL, EXEMPLARY, OR CONSEQUENTIAL
  60:Drivers/STM32L4xx_HAL_Driver/Src/stm32l4xx_hal_hcd.c ****   * DAMAGES (INCLUDING, BUT NOT LIMITED TO, PROCUREMENT OF SUBSTITUTE GOODS OR
  61:Drivers/STM32L4xx_HAL_Driver/Src/stm32l4xx_hal_hcd.c ****   * SERVICES; LOSS OF USE, DATA, OR PROFITS; OR BUSINESS INTERRUPTION) HOWEVER
  62:Drivers/STM32L4xx_HAL_Driver/Src/stm32l4xx_hal_hcd.c ****   * CAUSED AND ON ANY THEORY OF LIABILITY, WHETHER IN CONTRACT, STRICT LIABILITY,
  63:Drivers/STM32L4xx_HAL_Driver/Src/stm32l4xx_hal_hcd.c ****   * OR TORT (INCLUDING NEGLIGENCE OR OTHERWISE) ARISING IN ANY WAY OUT OF THE USE
  64:Drivers/STM32L4xx_HAL_Driver/Src/stm32l4xx_hal_hcd.c ****   * OF THIS SOFTWARE, EVEN IF ADVISED OF THE POSSIBILITY OF SUCH DAMAGE.
  65:Drivers/STM32L4xx_HAL_Driver/Src/stm32l4xx_hal_hcd.c ****   *
  66:Drivers/STM32L4xx_HAL_Driver/Src/stm32l4xx_hal_hcd.c ****   ******************************************************************************
  67:Drivers/STM32L4xx_HAL_Driver/Src/stm32l4xx_hal_hcd.c ****   */
  68:Drivers/STM32L4xx_HAL_Driver/Src/stm32l4xx_hal_hcd.c **** 
  69:Drivers/STM32L4xx_HAL_Driver/Src/stm32l4xx_hal_hcd.c **** /* Includes ------------------------------------------------------------------*/
  70:Drivers/STM32L4xx_HAL_Driver/Src/stm32l4xx_hal_hcd.c **** #include "stm32l4xx_hal.h"
  71:Drivers/STM32L4xx_HAL_Driver/Src/stm32l4xx_hal_hcd.c **** 
  72:Drivers/STM32L4xx_HAL_Driver/Src/stm32l4xx_hal_hcd.c **** /** @addtogroup STM32L4xx_HAL_Driver
  73:Drivers/STM32L4xx_HAL_Driver/Src/stm32l4xx_hal_hcd.c ****   * @{
  74:Drivers/STM32L4xx_HAL_Driver/Src/stm32l4xx_hal_hcd.c ****   */
  75:Drivers/STM32L4xx_HAL_Driver/Src/stm32l4xx_hal_hcd.c **** 
  76:Drivers/STM32L4xx_HAL_Driver/Src/stm32l4xx_hal_hcd.c **** #ifdef HAL_HCD_MODULE_ENABLED
  77:Drivers/STM32L4xx_HAL_Driver/Src/stm32l4xx_hal_hcd.c **** 
  78:Drivers/STM32L4xx_HAL_Driver/Src/stm32l4xx_hal_hcd.c **** #if defined (USB_OTG_FS) || defined (USB_OTG_HS)
  79:Drivers/STM32L4xx_HAL_Driver/Src/stm32l4xx_hal_hcd.c **** 
  80:Drivers/STM32L4xx_HAL_Driver/Src/stm32l4xx_hal_hcd.c **** /** @defgroup HCD HCD
  81:Drivers/STM32L4xx_HAL_Driver/Src/stm32l4xx_hal_hcd.c ****   * @brief HCD HAL module driver
  82:Drivers/STM32L4xx_HAL_Driver/Src/stm32l4xx_hal_hcd.c ****   * @{
  83:Drivers/STM32L4xx_HAL_Driver/Src/stm32l4xx_hal_hcd.c ****   */
  84:Drivers/STM32L4xx_HAL_Driver/Src/stm32l4xx_hal_hcd.c **** 
  85:Drivers/STM32L4xx_HAL_Driver/Src/stm32l4xx_hal_hcd.c **** /* Private typedef -----------------------------------------------------------*/
  86:Drivers/STM32L4xx_HAL_Driver/Src/stm32l4xx_hal_hcd.c **** /* Private define ------------------------------------------------------------*/
  87:Drivers/STM32L4xx_HAL_Driver/Src/stm32l4xx_hal_hcd.c **** /* Private macro -------------------------------------------------------------*/
  88:Drivers/STM32L4xx_HAL_Driver/Src/stm32l4xx_hal_hcd.c **** /* Private variables ---------------------------------------------------------*/
  89:Drivers/STM32L4xx_HAL_Driver/Src/stm32l4xx_hal_hcd.c **** /* Private function prototypes -----------------------------------------------*/
ARM GAS  /tmp/cckZR06T.s 			page 3


  90:Drivers/STM32L4xx_HAL_Driver/Src/stm32l4xx_hal_hcd.c **** /** @defgroup HCD_Private_Functions HCD Private Functions
  91:Drivers/STM32L4xx_HAL_Driver/Src/stm32l4xx_hal_hcd.c ****   * @{
  92:Drivers/STM32L4xx_HAL_Driver/Src/stm32l4xx_hal_hcd.c ****   */
  93:Drivers/STM32L4xx_HAL_Driver/Src/stm32l4xx_hal_hcd.c **** static void HCD_HC_IN_IRQHandler(HCD_HandleTypeDef *hhcd, uint8_t chnum);
  94:Drivers/STM32L4xx_HAL_Driver/Src/stm32l4xx_hal_hcd.c **** static void HCD_HC_OUT_IRQHandler(HCD_HandleTypeDef *hhcd, uint8_t chnum);
  95:Drivers/STM32L4xx_HAL_Driver/Src/stm32l4xx_hal_hcd.c **** static void HCD_RXQLVL_IRQHandler(HCD_HandleTypeDef *hhcd);
  96:Drivers/STM32L4xx_HAL_Driver/Src/stm32l4xx_hal_hcd.c **** static void HCD_Port_IRQHandler(HCD_HandleTypeDef *hhcd);
  97:Drivers/STM32L4xx_HAL_Driver/Src/stm32l4xx_hal_hcd.c **** /**
  98:Drivers/STM32L4xx_HAL_Driver/Src/stm32l4xx_hal_hcd.c ****   * @}
  99:Drivers/STM32L4xx_HAL_Driver/Src/stm32l4xx_hal_hcd.c ****   */
 100:Drivers/STM32L4xx_HAL_Driver/Src/stm32l4xx_hal_hcd.c **** 
 101:Drivers/STM32L4xx_HAL_Driver/Src/stm32l4xx_hal_hcd.c **** /* Exported functions --------------------------------------------------------*/
 102:Drivers/STM32L4xx_HAL_Driver/Src/stm32l4xx_hal_hcd.c **** /** @defgroup HCD_Exported_Functions HCD Exported Functions
 103:Drivers/STM32L4xx_HAL_Driver/Src/stm32l4xx_hal_hcd.c ****   * @{
 104:Drivers/STM32L4xx_HAL_Driver/Src/stm32l4xx_hal_hcd.c ****   */
 105:Drivers/STM32L4xx_HAL_Driver/Src/stm32l4xx_hal_hcd.c **** 
 106:Drivers/STM32L4xx_HAL_Driver/Src/stm32l4xx_hal_hcd.c **** /** @defgroup HCD_Exported_Functions_Group1 Initialization and de-initialization functions
 107:Drivers/STM32L4xx_HAL_Driver/Src/stm32l4xx_hal_hcd.c ****  *  @brief    Initialization and Configuration functions
 108:Drivers/STM32L4xx_HAL_Driver/Src/stm32l4xx_hal_hcd.c ****  *
 109:Drivers/STM32L4xx_HAL_Driver/Src/stm32l4xx_hal_hcd.c **** @verbatim
 110:Drivers/STM32L4xx_HAL_Driver/Src/stm32l4xx_hal_hcd.c ****  ===============================================================================
 111:Drivers/STM32L4xx_HAL_Driver/Src/stm32l4xx_hal_hcd.c ****           ##### Initialization and de-initialization functions #####
 112:Drivers/STM32L4xx_HAL_Driver/Src/stm32l4xx_hal_hcd.c ****  ===============================================================================
 113:Drivers/STM32L4xx_HAL_Driver/Src/stm32l4xx_hal_hcd.c ****     [..]  This section provides functions allowing to:
 114:Drivers/STM32L4xx_HAL_Driver/Src/stm32l4xx_hal_hcd.c **** 
 115:Drivers/STM32L4xx_HAL_Driver/Src/stm32l4xx_hal_hcd.c **** @endverbatim
 116:Drivers/STM32L4xx_HAL_Driver/Src/stm32l4xx_hal_hcd.c ****   * @{
 117:Drivers/STM32L4xx_HAL_Driver/Src/stm32l4xx_hal_hcd.c ****   */
 118:Drivers/STM32L4xx_HAL_Driver/Src/stm32l4xx_hal_hcd.c **** 
 119:Drivers/STM32L4xx_HAL_Driver/Src/stm32l4xx_hal_hcd.c **** /**
 120:Drivers/STM32L4xx_HAL_Driver/Src/stm32l4xx_hal_hcd.c ****   * @brief  Initialize the host driver.
 121:Drivers/STM32L4xx_HAL_Driver/Src/stm32l4xx_hal_hcd.c ****   * @param  hhcd HCD handle
 122:Drivers/STM32L4xx_HAL_Driver/Src/stm32l4xx_hal_hcd.c ****   * @retval HAL status
 123:Drivers/STM32L4xx_HAL_Driver/Src/stm32l4xx_hal_hcd.c ****   */
 124:Drivers/STM32L4xx_HAL_Driver/Src/stm32l4xx_hal_hcd.c **** HAL_StatusTypeDef HAL_HCD_Init(HCD_HandleTypeDef *hhcd)
 125:Drivers/STM32L4xx_HAL_Driver/Src/stm32l4xx_hal_hcd.c **** {
 126:Drivers/STM32L4xx_HAL_Driver/Src/stm32l4xx_hal_hcd.c ****   /* Check the HCD handle allocation */
 127:Drivers/STM32L4xx_HAL_Driver/Src/stm32l4xx_hal_hcd.c ****   if (hhcd == NULL)
 128:Drivers/STM32L4xx_HAL_Driver/Src/stm32l4xx_hal_hcd.c ****   {
 129:Drivers/STM32L4xx_HAL_Driver/Src/stm32l4xx_hal_hcd.c ****     return HAL_ERROR;
 130:Drivers/STM32L4xx_HAL_Driver/Src/stm32l4xx_hal_hcd.c ****   }
 131:Drivers/STM32L4xx_HAL_Driver/Src/stm32l4xx_hal_hcd.c **** 
 132:Drivers/STM32L4xx_HAL_Driver/Src/stm32l4xx_hal_hcd.c ****   /* Check the parameters */
 133:Drivers/STM32L4xx_HAL_Driver/Src/stm32l4xx_hal_hcd.c ****   assert_param(IS_HCD_ALL_INSTANCE(hhcd->Instance));
 134:Drivers/STM32L4xx_HAL_Driver/Src/stm32l4xx_hal_hcd.c **** 
 135:Drivers/STM32L4xx_HAL_Driver/Src/stm32l4xx_hal_hcd.c ****   if (hhcd->State == HAL_HCD_STATE_RESET)
 136:Drivers/STM32L4xx_HAL_Driver/Src/stm32l4xx_hal_hcd.c ****   {
 137:Drivers/STM32L4xx_HAL_Driver/Src/stm32l4xx_hal_hcd.c ****     /* Allocate lock resource and initialize it */
 138:Drivers/STM32L4xx_HAL_Driver/Src/stm32l4xx_hal_hcd.c ****     hhcd->Lock = HAL_UNLOCKED;
 139:Drivers/STM32L4xx_HAL_Driver/Src/stm32l4xx_hal_hcd.c **** 
 140:Drivers/STM32L4xx_HAL_Driver/Src/stm32l4xx_hal_hcd.c **** #if (USE_HAL_HCD_REGISTER_CALLBACKS == 1U)
 141:Drivers/STM32L4xx_HAL_Driver/Src/stm32l4xx_hal_hcd.c ****     hhcd->SOFCallback = HAL_HCD_SOF_Callback;
 142:Drivers/STM32L4xx_HAL_Driver/Src/stm32l4xx_hal_hcd.c ****     hhcd->ConnectCallback = HAL_HCD_Connect_Callback;
 143:Drivers/STM32L4xx_HAL_Driver/Src/stm32l4xx_hal_hcd.c ****     hhcd->DisconnectCallback = HAL_HCD_Disconnect_Callback;
 144:Drivers/STM32L4xx_HAL_Driver/Src/stm32l4xx_hal_hcd.c ****     hhcd->PortEnabledCallback = HAL_HCD_PortEnabled_Callback;
 145:Drivers/STM32L4xx_HAL_Driver/Src/stm32l4xx_hal_hcd.c ****     hhcd->PortDisabledCallback = HAL_HCD_PortDisabled_Callback;
 146:Drivers/STM32L4xx_HAL_Driver/Src/stm32l4xx_hal_hcd.c ****     hhcd->HC_NotifyURBChangeCallback = HAL_HCD_HC_NotifyURBChange_Callback;
ARM GAS  /tmp/cckZR06T.s 			page 4


 147:Drivers/STM32L4xx_HAL_Driver/Src/stm32l4xx_hal_hcd.c **** 
 148:Drivers/STM32L4xx_HAL_Driver/Src/stm32l4xx_hal_hcd.c ****     if (hhcd->MspInitCallback == NULL)
 149:Drivers/STM32L4xx_HAL_Driver/Src/stm32l4xx_hal_hcd.c ****     {
 150:Drivers/STM32L4xx_HAL_Driver/Src/stm32l4xx_hal_hcd.c ****       hhcd->MspInitCallback = HAL_HCD_MspInit;
 151:Drivers/STM32L4xx_HAL_Driver/Src/stm32l4xx_hal_hcd.c ****     }
 152:Drivers/STM32L4xx_HAL_Driver/Src/stm32l4xx_hal_hcd.c **** 
 153:Drivers/STM32L4xx_HAL_Driver/Src/stm32l4xx_hal_hcd.c ****     /* Init the low level hardware */
 154:Drivers/STM32L4xx_HAL_Driver/Src/stm32l4xx_hal_hcd.c ****     hhcd->MspInitCallback(hhcd);
 155:Drivers/STM32L4xx_HAL_Driver/Src/stm32l4xx_hal_hcd.c **** #else
 156:Drivers/STM32L4xx_HAL_Driver/Src/stm32l4xx_hal_hcd.c ****     /* Init the low level hardware : GPIO, CLOCK, NVIC... */
 157:Drivers/STM32L4xx_HAL_Driver/Src/stm32l4xx_hal_hcd.c ****     HAL_HCD_MspInit(hhcd);
 158:Drivers/STM32L4xx_HAL_Driver/Src/stm32l4xx_hal_hcd.c **** #endif /* (USE_HAL_HCD_REGISTER_CALLBACKS) */
 159:Drivers/STM32L4xx_HAL_Driver/Src/stm32l4xx_hal_hcd.c ****   }
 160:Drivers/STM32L4xx_HAL_Driver/Src/stm32l4xx_hal_hcd.c **** 
 161:Drivers/STM32L4xx_HAL_Driver/Src/stm32l4xx_hal_hcd.c ****   hhcd->State = HAL_HCD_STATE_BUSY;
 162:Drivers/STM32L4xx_HAL_Driver/Src/stm32l4xx_hal_hcd.c **** 
 163:Drivers/STM32L4xx_HAL_Driver/Src/stm32l4xx_hal_hcd.c ****   /* Disable the Interrupts */
 164:Drivers/STM32L4xx_HAL_Driver/Src/stm32l4xx_hal_hcd.c ****   __HAL_HCD_DISABLE(hhcd);
 165:Drivers/STM32L4xx_HAL_Driver/Src/stm32l4xx_hal_hcd.c **** 
 166:Drivers/STM32L4xx_HAL_Driver/Src/stm32l4xx_hal_hcd.c ****   /* Init the Core (common init.) */
 167:Drivers/STM32L4xx_HAL_Driver/Src/stm32l4xx_hal_hcd.c ****   (void)USB_CoreInit(hhcd->Instance, hhcd->Init);
 168:Drivers/STM32L4xx_HAL_Driver/Src/stm32l4xx_hal_hcd.c **** 
 169:Drivers/STM32L4xx_HAL_Driver/Src/stm32l4xx_hal_hcd.c ****   /* Force Host Mode*/
 170:Drivers/STM32L4xx_HAL_Driver/Src/stm32l4xx_hal_hcd.c ****   (void)USB_SetCurrentMode(hhcd->Instance, USB_HOST_MODE);
 171:Drivers/STM32L4xx_HAL_Driver/Src/stm32l4xx_hal_hcd.c **** 
 172:Drivers/STM32L4xx_HAL_Driver/Src/stm32l4xx_hal_hcd.c ****   /* Init Host */
 173:Drivers/STM32L4xx_HAL_Driver/Src/stm32l4xx_hal_hcd.c ****   (void)USB_HostInit(hhcd->Instance, hhcd->Init);
 174:Drivers/STM32L4xx_HAL_Driver/Src/stm32l4xx_hal_hcd.c **** 
 175:Drivers/STM32L4xx_HAL_Driver/Src/stm32l4xx_hal_hcd.c ****   hhcd->State = HAL_HCD_STATE_READY;
 176:Drivers/STM32L4xx_HAL_Driver/Src/stm32l4xx_hal_hcd.c **** 
 177:Drivers/STM32L4xx_HAL_Driver/Src/stm32l4xx_hal_hcd.c ****   return HAL_OK;
 178:Drivers/STM32L4xx_HAL_Driver/Src/stm32l4xx_hal_hcd.c **** }
 179:Drivers/STM32L4xx_HAL_Driver/Src/stm32l4xx_hal_hcd.c **** 
 180:Drivers/STM32L4xx_HAL_Driver/Src/stm32l4xx_hal_hcd.c **** /**
 181:Drivers/STM32L4xx_HAL_Driver/Src/stm32l4xx_hal_hcd.c ****   * @brief  Initialize a host channel.
 182:Drivers/STM32L4xx_HAL_Driver/Src/stm32l4xx_hal_hcd.c ****   * @param  hhcd HCD handle
 183:Drivers/STM32L4xx_HAL_Driver/Src/stm32l4xx_hal_hcd.c ****   * @param  ch_num Channel number.
 184:Drivers/STM32L4xx_HAL_Driver/Src/stm32l4xx_hal_hcd.c ****   *         This parameter can be a value from 1 to 15
 185:Drivers/STM32L4xx_HAL_Driver/Src/stm32l4xx_hal_hcd.c ****   * @param  epnum Endpoint number.
 186:Drivers/STM32L4xx_HAL_Driver/Src/stm32l4xx_hal_hcd.c ****   *          This parameter can be a value from 1 to 15
 187:Drivers/STM32L4xx_HAL_Driver/Src/stm32l4xx_hal_hcd.c ****   * @param  dev_address Current device address
 188:Drivers/STM32L4xx_HAL_Driver/Src/stm32l4xx_hal_hcd.c ****   *          This parameter can be a value from 0 to 255
 189:Drivers/STM32L4xx_HAL_Driver/Src/stm32l4xx_hal_hcd.c ****   * @param  speed Current device speed.
 190:Drivers/STM32L4xx_HAL_Driver/Src/stm32l4xx_hal_hcd.c ****   *          This parameter can be one of these values:
 191:Drivers/STM32L4xx_HAL_Driver/Src/stm32l4xx_hal_hcd.c ****   *            HCD_SPEED_HIGH: High speed mode,
 192:Drivers/STM32L4xx_HAL_Driver/Src/stm32l4xx_hal_hcd.c ****   *            HCD_SPEED_FULL: Full speed mode,
 193:Drivers/STM32L4xx_HAL_Driver/Src/stm32l4xx_hal_hcd.c ****   *            HCD_SPEED_LOW: Low speed mode
 194:Drivers/STM32L4xx_HAL_Driver/Src/stm32l4xx_hal_hcd.c ****   * @param  ep_type Endpoint Type.
 195:Drivers/STM32L4xx_HAL_Driver/Src/stm32l4xx_hal_hcd.c ****   *          This parameter can be one of these values:
 196:Drivers/STM32L4xx_HAL_Driver/Src/stm32l4xx_hal_hcd.c ****   *            EP_TYPE_CTRL: Control type,
 197:Drivers/STM32L4xx_HAL_Driver/Src/stm32l4xx_hal_hcd.c ****   *            EP_TYPE_ISOC: Isochronous type,
 198:Drivers/STM32L4xx_HAL_Driver/Src/stm32l4xx_hal_hcd.c ****   *            EP_TYPE_BULK: Bulk type,
 199:Drivers/STM32L4xx_HAL_Driver/Src/stm32l4xx_hal_hcd.c ****   *            EP_TYPE_INTR: Interrupt type
 200:Drivers/STM32L4xx_HAL_Driver/Src/stm32l4xx_hal_hcd.c ****   * @param  mps Max Packet Size.
 201:Drivers/STM32L4xx_HAL_Driver/Src/stm32l4xx_hal_hcd.c ****   *          This parameter can be a value from 0 to32K
 202:Drivers/STM32L4xx_HAL_Driver/Src/stm32l4xx_hal_hcd.c ****   * @retval HAL status
 203:Drivers/STM32L4xx_HAL_Driver/Src/stm32l4xx_hal_hcd.c ****   */
ARM GAS  /tmp/cckZR06T.s 			page 5


 204:Drivers/STM32L4xx_HAL_Driver/Src/stm32l4xx_hal_hcd.c **** HAL_StatusTypeDef HAL_HCD_HC_Init(HCD_HandleTypeDef *hhcd,
 205:Drivers/STM32L4xx_HAL_Driver/Src/stm32l4xx_hal_hcd.c ****                                   uint8_t ch_num,
 206:Drivers/STM32L4xx_HAL_Driver/Src/stm32l4xx_hal_hcd.c ****                                   uint8_t epnum,
 207:Drivers/STM32L4xx_HAL_Driver/Src/stm32l4xx_hal_hcd.c ****                                   uint8_t dev_address,
 208:Drivers/STM32L4xx_HAL_Driver/Src/stm32l4xx_hal_hcd.c ****                                   uint8_t speed,
 209:Drivers/STM32L4xx_HAL_Driver/Src/stm32l4xx_hal_hcd.c ****                                   uint8_t ep_type,
 210:Drivers/STM32L4xx_HAL_Driver/Src/stm32l4xx_hal_hcd.c ****                                   uint16_t mps)
 211:Drivers/STM32L4xx_HAL_Driver/Src/stm32l4xx_hal_hcd.c **** {
 212:Drivers/STM32L4xx_HAL_Driver/Src/stm32l4xx_hal_hcd.c ****   HAL_StatusTypeDef status;
 213:Drivers/STM32L4xx_HAL_Driver/Src/stm32l4xx_hal_hcd.c **** 
 214:Drivers/STM32L4xx_HAL_Driver/Src/stm32l4xx_hal_hcd.c ****   __HAL_LOCK(hhcd);
 215:Drivers/STM32L4xx_HAL_Driver/Src/stm32l4xx_hal_hcd.c ****   hhcd->hc[ch_num].do_ping = 0U;
 216:Drivers/STM32L4xx_HAL_Driver/Src/stm32l4xx_hal_hcd.c ****   hhcd->hc[ch_num].dev_addr = dev_address;
 217:Drivers/STM32L4xx_HAL_Driver/Src/stm32l4xx_hal_hcd.c ****   hhcd->hc[ch_num].max_packet = mps;
 218:Drivers/STM32L4xx_HAL_Driver/Src/stm32l4xx_hal_hcd.c ****   hhcd->hc[ch_num].ch_num = ch_num;
 219:Drivers/STM32L4xx_HAL_Driver/Src/stm32l4xx_hal_hcd.c ****   hhcd->hc[ch_num].ep_type = ep_type;
 220:Drivers/STM32L4xx_HAL_Driver/Src/stm32l4xx_hal_hcd.c ****   hhcd->hc[ch_num].ep_num = epnum & 0x7FU;
 221:Drivers/STM32L4xx_HAL_Driver/Src/stm32l4xx_hal_hcd.c **** 
 222:Drivers/STM32L4xx_HAL_Driver/Src/stm32l4xx_hal_hcd.c ****   if ((epnum & 0x80U) == 0x80U)
 223:Drivers/STM32L4xx_HAL_Driver/Src/stm32l4xx_hal_hcd.c ****   {
 224:Drivers/STM32L4xx_HAL_Driver/Src/stm32l4xx_hal_hcd.c ****     hhcd->hc[ch_num].ep_is_in = 1U;
 225:Drivers/STM32L4xx_HAL_Driver/Src/stm32l4xx_hal_hcd.c ****   }
 226:Drivers/STM32L4xx_HAL_Driver/Src/stm32l4xx_hal_hcd.c ****   else
 227:Drivers/STM32L4xx_HAL_Driver/Src/stm32l4xx_hal_hcd.c ****   {
 228:Drivers/STM32L4xx_HAL_Driver/Src/stm32l4xx_hal_hcd.c ****     hhcd->hc[ch_num].ep_is_in = 0U;
 229:Drivers/STM32L4xx_HAL_Driver/Src/stm32l4xx_hal_hcd.c ****   }
 230:Drivers/STM32L4xx_HAL_Driver/Src/stm32l4xx_hal_hcd.c **** 
 231:Drivers/STM32L4xx_HAL_Driver/Src/stm32l4xx_hal_hcd.c ****   hhcd->hc[ch_num].speed = speed;
 232:Drivers/STM32L4xx_HAL_Driver/Src/stm32l4xx_hal_hcd.c **** 
 233:Drivers/STM32L4xx_HAL_Driver/Src/stm32l4xx_hal_hcd.c ****   status =  USB_HC_Init(hhcd->Instance,
 234:Drivers/STM32L4xx_HAL_Driver/Src/stm32l4xx_hal_hcd.c ****                         ch_num,
 235:Drivers/STM32L4xx_HAL_Driver/Src/stm32l4xx_hal_hcd.c ****                         epnum,
 236:Drivers/STM32L4xx_HAL_Driver/Src/stm32l4xx_hal_hcd.c ****                         dev_address,
 237:Drivers/STM32L4xx_HAL_Driver/Src/stm32l4xx_hal_hcd.c ****                         speed,
 238:Drivers/STM32L4xx_HAL_Driver/Src/stm32l4xx_hal_hcd.c ****                         ep_type,
 239:Drivers/STM32L4xx_HAL_Driver/Src/stm32l4xx_hal_hcd.c ****                         mps);
 240:Drivers/STM32L4xx_HAL_Driver/Src/stm32l4xx_hal_hcd.c ****   __HAL_UNLOCK(hhcd);
 241:Drivers/STM32L4xx_HAL_Driver/Src/stm32l4xx_hal_hcd.c **** 
 242:Drivers/STM32L4xx_HAL_Driver/Src/stm32l4xx_hal_hcd.c ****   return status;
 243:Drivers/STM32L4xx_HAL_Driver/Src/stm32l4xx_hal_hcd.c **** }
 244:Drivers/STM32L4xx_HAL_Driver/Src/stm32l4xx_hal_hcd.c **** 
 245:Drivers/STM32L4xx_HAL_Driver/Src/stm32l4xx_hal_hcd.c **** /**
 246:Drivers/STM32L4xx_HAL_Driver/Src/stm32l4xx_hal_hcd.c ****   * @brief  Halt a host channel.
 247:Drivers/STM32L4xx_HAL_Driver/Src/stm32l4xx_hal_hcd.c ****   * @param  hhcd HCD handle
 248:Drivers/STM32L4xx_HAL_Driver/Src/stm32l4xx_hal_hcd.c ****   * @param  ch_num Channel number.
 249:Drivers/STM32L4xx_HAL_Driver/Src/stm32l4xx_hal_hcd.c ****   *         This parameter can be a value from 1 to 15
 250:Drivers/STM32L4xx_HAL_Driver/Src/stm32l4xx_hal_hcd.c ****   * @retval HAL status
 251:Drivers/STM32L4xx_HAL_Driver/Src/stm32l4xx_hal_hcd.c ****   */
 252:Drivers/STM32L4xx_HAL_Driver/Src/stm32l4xx_hal_hcd.c **** HAL_StatusTypeDef HAL_HCD_HC_Halt(HCD_HandleTypeDef *hhcd, uint8_t ch_num)
 253:Drivers/STM32L4xx_HAL_Driver/Src/stm32l4xx_hal_hcd.c **** {
 254:Drivers/STM32L4xx_HAL_Driver/Src/stm32l4xx_hal_hcd.c ****   HAL_StatusTypeDef status = HAL_OK;
 255:Drivers/STM32L4xx_HAL_Driver/Src/stm32l4xx_hal_hcd.c **** 
 256:Drivers/STM32L4xx_HAL_Driver/Src/stm32l4xx_hal_hcd.c ****   __HAL_LOCK(hhcd);
 257:Drivers/STM32L4xx_HAL_Driver/Src/stm32l4xx_hal_hcd.c ****   (void)USB_HC_Halt(hhcd->Instance, (uint8_t)ch_num);
 258:Drivers/STM32L4xx_HAL_Driver/Src/stm32l4xx_hal_hcd.c ****   __HAL_UNLOCK(hhcd);
 259:Drivers/STM32L4xx_HAL_Driver/Src/stm32l4xx_hal_hcd.c **** 
 260:Drivers/STM32L4xx_HAL_Driver/Src/stm32l4xx_hal_hcd.c ****   return status;
ARM GAS  /tmp/cckZR06T.s 			page 6


 261:Drivers/STM32L4xx_HAL_Driver/Src/stm32l4xx_hal_hcd.c **** }
 262:Drivers/STM32L4xx_HAL_Driver/Src/stm32l4xx_hal_hcd.c **** 
 263:Drivers/STM32L4xx_HAL_Driver/Src/stm32l4xx_hal_hcd.c **** /**
 264:Drivers/STM32L4xx_HAL_Driver/Src/stm32l4xx_hal_hcd.c ****   * @brief  DeInitialize the host driver.
 265:Drivers/STM32L4xx_HAL_Driver/Src/stm32l4xx_hal_hcd.c ****   * @param  hhcd HCD handle
 266:Drivers/STM32L4xx_HAL_Driver/Src/stm32l4xx_hal_hcd.c ****   * @retval HAL status
 267:Drivers/STM32L4xx_HAL_Driver/Src/stm32l4xx_hal_hcd.c ****   */
 268:Drivers/STM32L4xx_HAL_Driver/Src/stm32l4xx_hal_hcd.c **** HAL_StatusTypeDef HAL_HCD_DeInit(HCD_HandleTypeDef *hhcd)
 269:Drivers/STM32L4xx_HAL_Driver/Src/stm32l4xx_hal_hcd.c **** {
 270:Drivers/STM32L4xx_HAL_Driver/Src/stm32l4xx_hal_hcd.c ****   /* Check the HCD handle allocation */
 271:Drivers/STM32L4xx_HAL_Driver/Src/stm32l4xx_hal_hcd.c ****   if (hhcd == NULL)
 272:Drivers/STM32L4xx_HAL_Driver/Src/stm32l4xx_hal_hcd.c ****   {
 273:Drivers/STM32L4xx_HAL_Driver/Src/stm32l4xx_hal_hcd.c ****     return HAL_ERROR;
 274:Drivers/STM32L4xx_HAL_Driver/Src/stm32l4xx_hal_hcd.c ****   }
 275:Drivers/STM32L4xx_HAL_Driver/Src/stm32l4xx_hal_hcd.c **** 
 276:Drivers/STM32L4xx_HAL_Driver/Src/stm32l4xx_hal_hcd.c ****   hhcd->State = HAL_HCD_STATE_BUSY;
 277:Drivers/STM32L4xx_HAL_Driver/Src/stm32l4xx_hal_hcd.c **** 
 278:Drivers/STM32L4xx_HAL_Driver/Src/stm32l4xx_hal_hcd.c **** #if (USE_HAL_HCD_REGISTER_CALLBACKS == 1U)
 279:Drivers/STM32L4xx_HAL_Driver/Src/stm32l4xx_hal_hcd.c ****   if (hhcd->MspDeInitCallback == NULL)
 280:Drivers/STM32L4xx_HAL_Driver/Src/stm32l4xx_hal_hcd.c ****   {
 281:Drivers/STM32L4xx_HAL_Driver/Src/stm32l4xx_hal_hcd.c ****     hhcd->MspDeInitCallback = HAL_HCD_MspDeInit; /* Legacy weak MspDeInit  */
 282:Drivers/STM32L4xx_HAL_Driver/Src/stm32l4xx_hal_hcd.c ****   }
 283:Drivers/STM32L4xx_HAL_Driver/Src/stm32l4xx_hal_hcd.c **** 
 284:Drivers/STM32L4xx_HAL_Driver/Src/stm32l4xx_hal_hcd.c ****   /* DeInit the low level hardware */
 285:Drivers/STM32L4xx_HAL_Driver/Src/stm32l4xx_hal_hcd.c ****   hhcd->MspDeInitCallback(hhcd);
 286:Drivers/STM32L4xx_HAL_Driver/Src/stm32l4xx_hal_hcd.c **** #else
 287:Drivers/STM32L4xx_HAL_Driver/Src/stm32l4xx_hal_hcd.c ****   /* DeInit the low level hardware: CLOCK, NVIC.*/
 288:Drivers/STM32L4xx_HAL_Driver/Src/stm32l4xx_hal_hcd.c ****   HAL_HCD_MspDeInit(hhcd);
 289:Drivers/STM32L4xx_HAL_Driver/Src/stm32l4xx_hal_hcd.c **** #endif /* USE_HAL_HCD_REGISTER_CALLBACKS */
 290:Drivers/STM32L4xx_HAL_Driver/Src/stm32l4xx_hal_hcd.c **** 
 291:Drivers/STM32L4xx_HAL_Driver/Src/stm32l4xx_hal_hcd.c ****   __HAL_HCD_DISABLE(hhcd);
 292:Drivers/STM32L4xx_HAL_Driver/Src/stm32l4xx_hal_hcd.c **** 
 293:Drivers/STM32L4xx_HAL_Driver/Src/stm32l4xx_hal_hcd.c ****   hhcd->State = HAL_HCD_STATE_RESET;
 294:Drivers/STM32L4xx_HAL_Driver/Src/stm32l4xx_hal_hcd.c **** 
 295:Drivers/STM32L4xx_HAL_Driver/Src/stm32l4xx_hal_hcd.c ****   return HAL_OK;
 296:Drivers/STM32L4xx_HAL_Driver/Src/stm32l4xx_hal_hcd.c **** }
 297:Drivers/STM32L4xx_HAL_Driver/Src/stm32l4xx_hal_hcd.c **** 
 298:Drivers/STM32L4xx_HAL_Driver/Src/stm32l4xx_hal_hcd.c **** /**
 299:Drivers/STM32L4xx_HAL_Driver/Src/stm32l4xx_hal_hcd.c ****   * @brief  Initialize the HCD MSP.
 300:Drivers/STM32L4xx_HAL_Driver/Src/stm32l4xx_hal_hcd.c ****   * @param  hhcd HCD handle
 301:Drivers/STM32L4xx_HAL_Driver/Src/stm32l4xx_hal_hcd.c ****   * @retval None
 302:Drivers/STM32L4xx_HAL_Driver/Src/stm32l4xx_hal_hcd.c ****   */
 303:Drivers/STM32L4xx_HAL_Driver/Src/stm32l4xx_hal_hcd.c **** __weak void  HAL_HCD_MspInit(HCD_HandleTypeDef *hhcd)
 304:Drivers/STM32L4xx_HAL_Driver/Src/stm32l4xx_hal_hcd.c **** {
 305:Drivers/STM32L4xx_HAL_Driver/Src/stm32l4xx_hal_hcd.c ****   /* Prevent unused argument(s) compilation warning */
 306:Drivers/STM32L4xx_HAL_Driver/Src/stm32l4xx_hal_hcd.c ****   UNUSED(hhcd);
 307:Drivers/STM32L4xx_HAL_Driver/Src/stm32l4xx_hal_hcd.c **** 
 308:Drivers/STM32L4xx_HAL_Driver/Src/stm32l4xx_hal_hcd.c ****   /* NOTE : This function should not be modified, when the callback is needed,
 309:Drivers/STM32L4xx_HAL_Driver/Src/stm32l4xx_hal_hcd.c ****             the HAL_HCD_MspInit could be implemented in the user file
 310:Drivers/STM32L4xx_HAL_Driver/Src/stm32l4xx_hal_hcd.c ****    */
 311:Drivers/STM32L4xx_HAL_Driver/Src/stm32l4xx_hal_hcd.c **** }
 312:Drivers/STM32L4xx_HAL_Driver/Src/stm32l4xx_hal_hcd.c **** 
 313:Drivers/STM32L4xx_HAL_Driver/Src/stm32l4xx_hal_hcd.c **** /**
 314:Drivers/STM32L4xx_HAL_Driver/Src/stm32l4xx_hal_hcd.c ****   * @brief  DeInitialize the HCD MSP.
 315:Drivers/STM32L4xx_HAL_Driver/Src/stm32l4xx_hal_hcd.c ****   * @param  hhcd HCD handle
 316:Drivers/STM32L4xx_HAL_Driver/Src/stm32l4xx_hal_hcd.c ****   * @retval None
 317:Drivers/STM32L4xx_HAL_Driver/Src/stm32l4xx_hal_hcd.c ****   */
ARM GAS  /tmp/cckZR06T.s 			page 7


 318:Drivers/STM32L4xx_HAL_Driver/Src/stm32l4xx_hal_hcd.c **** __weak void  HAL_HCD_MspDeInit(HCD_HandleTypeDef *hhcd)
 319:Drivers/STM32L4xx_HAL_Driver/Src/stm32l4xx_hal_hcd.c **** {
 320:Drivers/STM32L4xx_HAL_Driver/Src/stm32l4xx_hal_hcd.c ****   /* Prevent unused argument(s) compilation warning */
 321:Drivers/STM32L4xx_HAL_Driver/Src/stm32l4xx_hal_hcd.c ****   UNUSED(hhcd);
 322:Drivers/STM32L4xx_HAL_Driver/Src/stm32l4xx_hal_hcd.c **** 
 323:Drivers/STM32L4xx_HAL_Driver/Src/stm32l4xx_hal_hcd.c ****   /* NOTE : This function should not be modified, when the callback is needed,
 324:Drivers/STM32L4xx_HAL_Driver/Src/stm32l4xx_hal_hcd.c ****             the HAL_HCD_MspDeInit could be implemented in the user file
 325:Drivers/STM32L4xx_HAL_Driver/Src/stm32l4xx_hal_hcd.c ****    */
 326:Drivers/STM32L4xx_HAL_Driver/Src/stm32l4xx_hal_hcd.c **** }
 327:Drivers/STM32L4xx_HAL_Driver/Src/stm32l4xx_hal_hcd.c **** 
 328:Drivers/STM32L4xx_HAL_Driver/Src/stm32l4xx_hal_hcd.c **** /**
 329:Drivers/STM32L4xx_HAL_Driver/Src/stm32l4xx_hal_hcd.c ****   * @}
 330:Drivers/STM32L4xx_HAL_Driver/Src/stm32l4xx_hal_hcd.c ****   */
 331:Drivers/STM32L4xx_HAL_Driver/Src/stm32l4xx_hal_hcd.c **** 
 332:Drivers/STM32L4xx_HAL_Driver/Src/stm32l4xx_hal_hcd.c **** /** @defgroup HCD_Exported_Functions_Group2 Input and Output operation functions
 333:Drivers/STM32L4xx_HAL_Driver/Src/stm32l4xx_hal_hcd.c ****   *  @brief   HCD IO operation functions
 334:Drivers/STM32L4xx_HAL_Driver/Src/stm32l4xx_hal_hcd.c ****   *
 335:Drivers/STM32L4xx_HAL_Driver/Src/stm32l4xx_hal_hcd.c **** @verbatim
 336:Drivers/STM32L4xx_HAL_Driver/Src/stm32l4xx_hal_hcd.c ****  ===============================================================================
 337:Drivers/STM32L4xx_HAL_Driver/Src/stm32l4xx_hal_hcd.c ****                       ##### IO operation functions #####
 338:Drivers/STM32L4xx_HAL_Driver/Src/stm32l4xx_hal_hcd.c ****  ===============================================================================
 339:Drivers/STM32L4xx_HAL_Driver/Src/stm32l4xx_hal_hcd.c ****  [..] This subsection provides a set of functions allowing to manage the USB Host Data
 340:Drivers/STM32L4xx_HAL_Driver/Src/stm32l4xx_hal_hcd.c ****     Transfer
 341:Drivers/STM32L4xx_HAL_Driver/Src/stm32l4xx_hal_hcd.c **** 
 342:Drivers/STM32L4xx_HAL_Driver/Src/stm32l4xx_hal_hcd.c **** @endverbatim
 343:Drivers/STM32L4xx_HAL_Driver/Src/stm32l4xx_hal_hcd.c ****   * @{
 344:Drivers/STM32L4xx_HAL_Driver/Src/stm32l4xx_hal_hcd.c ****   */
 345:Drivers/STM32L4xx_HAL_Driver/Src/stm32l4xx_hal_hcd.c **** 
 346:Drivers/STM32L4xx_HAL_Driver/Src/stm32l4xx_hal_hcd.c **** /**
 347:Drivers/STM32L4xx_HAL_Driver/Src/stm32l4xx_hal_hcd.c ****   * @brief  Submit a new URB for processing.
 348:Drivers/STM32L4xx_HAL_Driver/Src/stm32l4xx_hal_hcd.c ****   * @param  hhcd HCD handle
 349:Drivers/STM32L4xx_HAL_Driver/Src/stm32l4xx_hal_hcd.c ****   * @param  ch_num Channel number.
 350:Drivers/STM32L4xx_HAL_Driver/Src/stm32l4xx_hal_hcd.c ****   *         This parameter can be a value from 1 to 15
 351:Drivers/STM32L4xx_HAL_Driver/Src/stm32l4xx_hal_hcd.c ****   * @param  direction Channel number.
 352:Drivers/STM32L4xx_HAL_Driver/Src/stm32l4xx_hal_hcd.c ****   *          This parameter can be one of these values:
 353:Drivers/STM32L4xx_HAL_Driver/Src/stm32l4xx_hal_hcd.c ****   *           0 : Output / 1 : Input
 354:Drivers/STM32L4xx_HAL_Driver/Src/stm32l4xx_hal_hcd.c ****   * @param  ep_type Endpoint Type.
 355:Drivers/STM32L4xx_HAL_Driver/Src/stm32l4xx_hal_hcd.c ****   *          This parameter can be one of these values:
 356:Drivers/STM32L4xx_HAL_Driver/Src/stm32l4xx_hal_hcd.c ****   *            EP_TYPE_CTRL: Control type/
 357:Drivers/STM32L4xx_HAL_Driver/Src/stm32l4xx_hal_hcd.c ****   *            EP_TYPE_ISOC: Isochronous type/
 358:Drivers/STM32L4xx_HAL_Driver/Src/stm32l4xx_hal_hcd.c ****   *            EP_TYPE_BULK: Bulk type/
 359:Drivers/STM32L4xx_HAL_Driver/Src/stm32l4xx_hal_hcd.c ****   *            EP_TYPE_INTR: Interrupt type/
 360:Drivers/STM32L4xx_HAL_Driver/Src/stm32l4xx_hal_hcd.c ****   * @param  token Endpoint Type.
 361:Drivers/STM32L4xx_HAL_Driver/Src/stm32l4xx_hal_hcd.c ****   *          This parameter can be one of these values:
 362:Drivers/STM32L4xx_HAL_Driver/Src/stm32l4xx_hal_hcd.c ****   *            0: HC_PID_SETUP / 1: HC_PID_DATA1
 363:Drivers/STM32L4xx_HAL_Driver/Src/stm32l4xx_hal_hcd.c ****   * @param  pbuff pointer to URB data
 364:Drivers/STM32L4xx_HAL_Driver/Src/stm32l4xx_hal_hcd.c ****   * @param  length Length of URB data
 365:Drivers/STM32L4xx_HAL_Driver/Src/stm32l4xx_hal_hcd.c ****   * @param  do_ping activate do ping protocol (for high speed only).
 366:Drivers/STM32L4xx_HAL_Driver/Src/stm32l4xx_hal_hcd.c ****   *          This parameter can be one of these values:
 367:Drivers/STM32L4xx_HAL_Driver/Src/stm32l4xx_hal_hcd.c ****   *           0 : do ping inactive / 1 : do ping active
 368:Drivers/STM32L4xx_HAL_Driver/Src/stm32l4xx_hal_hcd.c ****   * @retval HAL status
 369:Drivers/STM32L4xx_HAL_Driver/Src/stm32l4xx_hal_hcd.c ****   */
 370:Drivers/STM32L4xx_HAL_Driver/Src/stm32l4xx_hal_hcd.c **** HAL_StatusTypeDef HAL_HCD_HC_SubmitRequest(HCD_HandleTypeDef *hhcd,
 371:Drivers/STM32L4xx_HAL_Driver/Src/stm32l4xx_hal_hcd.c ****                                            uint8_t ch_num,
 372:Drivers/STM32L4xx_HAL_Driver/Src/stm32l4xx_hal_hcd.c ****                                            uint8_t direction,
 373:Drivers/STM32L4xx_HAL_Driver/Src/stm32l4xx_hal_hcd.c ****                                            uint8_t ep_type,
 374:Drivers/STM32L4xx_HAL_Driver/Src/stm32l4xx_hal_hcd.c ****                                            uint8_t token,
ARM GAS  /tmp/cckZR06T.s 			page 8


 375:Drivers/STM32L4xx_HAL_Driver/Src/stm32l4xx_hal_hcd.c ****                                            uint8_t *pbuff,
 376:Drivers/STM32L4xx_HAL_Driver/Src/stm32l4xx_hal_hcd.c ****                                            uint16_t length,
 377:Drivers/STM32L4xx_HAL_Driver/Src/stm32l4xx_hal_hcd.c ****                                            uint8_t do_ping)
 378:Drivers/STM32L4xx_HAL_Driver/Src/stm32l4xx_hal_hcd.c **** {
 379:Drivers/STM32L4xx_HAL_Driver/Src/stm32l4xx_hal_hcd.c ****   UNUSED(do_ping);
 380:Drivers/STM32L4xx_HAL_Driver/Src/stm32l4xx_hal_hcd.c **** 
 381:Drivers/STM32L4xx_HAL_Driver/Src/stm32l4xx_hal_hcd.c ****   hhcd->hc[ch_num].ep_is_in = direction;
 382:Drivers/STM32L4xx_HAL_Driver/Src/stm32l4xx_hal_hcd.c ****   hhcd->hc[ch_num].ep_type  = ep_type;
 383:Drivers/STM32L4xx_HAL_Driver/Src/stm32l4xx_hal_hcd.c **** 
 384:Drivers/STM32L4xx_HAL_Driver/Src/stm32l4xx_hal_hcd.c ****   if (token == 0U)
 385:Drivers/STM32L4xx_HAL_Driver/Src/stm32l4xx_hal_hcd.c ****   {
 386:Drivers/STM32L4xx_HAL_Driver/Src/stm32l4xx_hal_hcd.c ****     hhcd->hc[ch_num].data_pid = HC_PID_SETUP;
 387:Drivers/STM32L4xx_HAL_Driver/Src/stm32l4xx_hal_hcd.c ****   }
 388:Drivers/STM32L4xx_HAL_Driver/Src/stm32l4xx_hal_hcd.c ****   else
 389:Drivers/STM32L4xx_HAL_Driver/Src/stm32l4xx_hal_hcd.c ****   {
 390:Drivers/STM32L4xx_HAL_Driver/Src/stm32l4xx_hal_hcd.c ****     hhcd->hc[ch_num].data_pid = HC_PID_DATA1;
 391:Drivers/STM32L4xx_HAL_Driver/Src/stm32l4xx_hal_hcd.c ****   }
 392:Drivers/STM32L4xx_HAL_Driver/Src/stm32l4xx_hal_hcd.c **** 
 393:Drivers/STM32L4xx_HAL_Driver/Src/stm32l4xx_hal_hcd.c ****   /* Manage Data Toggle */
 394:Drivers/STM32L4xx_HAL_Driver/Src/stm32l4xx_hal_hcd.c ****   switch (ep_type)
 395:Drivers/STM32L4xx_HAL_Driver/Src/stm32l4xx_hal_hcd.c ****   {
 396:Drivers/STM32L4xx_HAL_Driver/Src/stm32l4xx_hal_hcd.c ****     case EP_TYPE_CTRL:
 397:Drivers/STM32L4xx_HAL_Driver/Src/stm32l4xx_hal_hcd.c ****       if ((token == 1U) && (direction == 0U)) /*send data */
 398:Drivers/STM32L4xx_HAL_Driver/Src/stm32l4xx_hal_hcd.c ****       {
 399:Drivers/STM32L4xx_HAL_Driver/Src/stm32l4xx_hal_hcd.c ****         if (length == 0U)
 400:Drivers/STM32L4xx_HAL_Driver/Src/stm32l4xx_hal_hcd.c ****         {
 401:Drivers/STM32L4xx_HAL_Driver/Src/stm32l4xx_hal_hcd.c ****           /* For Status OUT stage, Length==0, Status Out PID = 1 */
 402:Drivers/STM32L4xx_HAL_Driver/Src/stm32l4xx_hal_hcd.c ****           hhcd->hc[ch_num].toggle_out = 1U;
 403:Drivers/STM32L4xx_HAL_Driver/Src/stm32l4xx_hal_hcd.c ****         }
 404:Drivers/STM32L4xx_HAL_Driver/Src/stm32l4xx_hal_hcd.c **** 
 405:Drivers/STM32L4xx_HAL_Driver/Src/stm32l4xx_hal_hcd.c ****         /* Set the Data Toggle bit as per the Flag */
 406:Drivers/STM32L4xx_HAL_Driver/Src/stm32l4xx_hal_hcd.c ****         if (hhcd->hc[ch_num].toggle_out == 0U)
 407:Drivers/STM32L4xx_HAL_Driver/Src/stm32l4xx_hal_hcd.c ****         {
 408:Drivers/STM32L4xx_HAL_Driver/Src/stm32l4xx_hal_hcd.c ****           /* Put the PID 0 */
 409:Drivers/STM32L4xx_HAL_Driver/Src/stm32l4xx_hal_hcd.c ****           hhcd->hc[ch_num].data_pid = HC_PID_DATA0;
 410:Drivers/STM32L4xx_HAL_Driver/Src/stm32l4xx_hal_hcd.c ****         }
 411:Drivers/STM32L4xx_HAL_Driver/Src/stm32l4xx_hal_hcd.c ****         else
 412:Drivers/STM32L4xx_HAL_Driver/Src/stm32l4xx_hal_hcd.c ****         {
 413:Drivers/STM32L4xx_HAL_Driver/Src/stm32l4xx_hal_hcd.c ****           /* Put the PID 1 */
 414:Drivers/STM32L4xx_HAL_Driver/Src/stm32l4xx_hal_hcd.c ****           hhcd->hc[ch_num].data_pid = HC_PID_DATA1;
 415:Drivers/STM32L4xx_HAL_Driver/Src/stm32l4xx_hal_hcd.c ****         }
 416:Drivers/STM32L4xx_HAL_Driver/Src/stm32l4xx_hal_hcd.c ****       }
 417:Drivers/STM32L4xx_HAL_Driver/Src/stm32l4xx_hal_hcd.c ****       break;
 418:Drivers/STM32L4xx_HAL_Driver/Src/stm32l4xx_hal_hcd.c **** 
 419:Drivers/STM32L4xx_HAL_Driver/Src/stm32l4xx_hal_hcd.c ****     case EP_TYPE_BULK:
 420:Drivers/STM32L4xx_HAL_Driver/Src/stm32l4xx_hal_hcd.c ****       if (direction == 0U)
 421:Drivers/STM32L4xx_HAL_Driver/Src/stm32l4xx_hal_hcd.c ****       {
 422:Drivers/STM32L4xx_HAL_Driver/Src/stm32l4xx_hal_hcd.c ****         /* Set the Data Toggle bit as per the Flag */
 423:Drivers/STM32L4xx_HAL_Driver/Src/stm32l4xx_hal_hcd.c ****         if (hhcd->hc[ch_num].toggle_out == 0U)
 424:Drivers/STM32L4xx_HAL_Driver/Src/stm32l4xx_hal_hcd.c ****         {
 425:Drivers/STM32L4xx_HAL_Driver/Src/stm32l4xx_hal_hcd.c ****           /* Put the PID 0 */
 426:Drivers/STM32L4xx_HAL_Driver/Src/stm32l4xx_hal_hcd.c ****           hhcd->hc[ch_num].data_pid = HC_PID_DATA0;
 427:Drivers/STM32L4xx_HAL_Driver/Src/stm32l4xx_hal_hcd.c ****         }
 428:Drivers/STM32L4xx_HAL_Driver/Src/stm32l4xx_hal_hcd.c ****         else
 429:Drivers/STM32L4xx_HAL_Driver/Src/stm32l4xx_hal_hcd.c ****         {
 430:Drivers/STM32L4xx_HAL_Driver/Src/stm32l4xx_hal_hcd.c ****           /* Put the PID 1 */
 431:Drivers/STM32L4xx_HAL_Driver/Src/stm32l4xx_hal_hcd.c ****           hhcd->hc[ch_num].data_pid = HC_PID_DATA1;
ARM GAS  /tmp/cckZR06T.s 			page 9


 432:Drivers/STM32L4xx_HAL_Driver/Src/stm32l4xx_hal_hcd.c ****         }
 433:Drivers/STM32L4xx_HAL_Driver/Src/stm32l4xx_hal_hcd.c ****       }
 434:Drivers/STM32L4xx_HAL_Driver/Src/stm32l4xx_hal_hcd.c ****       else
 435:Drivers/STM32L4xx_HAL_Driver/Src/stm32l4xx_hal_hcd.c ****       {
 436:Drivers/STM32L4xx_HAL_Driver/Src/stm32l4xx_hal_hcd.c ****         if (hhcd->hc[ch_num].toggle_in == 0U)
 437:Drivers/STM32L4xx_HAL_Driver/Src/stm32l4xx_hal_hcd.c ****         {
 438:Drivers/STM32L4xx_HAL_Driver/Src/stm32l4xx_hal_hcd.c ****           hhcd->hc[ch_num].data_pid = HC_PID_DATA0;
 439:Drivers/STM32L4xx_HAL_Driver/Src/stm32l4xx_hal_hcd.c ****         }
 440:Drivers/STM32L4xx_HAL_Driver/Src/stm32l4xx_hal_hcd.c ****         else
 441:Drivers/STM32L4xx_HAL_Driver/Src/stm32l4xx_hal_hcd.c ****         {
 442:Drivers/STM32L4xx_HAL_Driver/Src/stm32l4xx_hal_hcd.c ****           hhcd->hc[ch_num].data_pid = HC_PID_DATA1;
 443:Drivers/STM32L4xx_HAL_Driver/Src/stm32l4xx_hal_hcd.c ****         }
 444:Drivers/STM32L4xx_HAL_Driver/Src/stm32l4xx_hal_hcd.c ****       }
 445:Drivers/STM32L4xx_HAL_Driver/Src/stm32l4xx_hal_hcd.c **** 
 446:Drivers/STM32L4xx_HAL_Driver/Src/stm32l4xx_hal_hcd.c ****       break;
 447:Drivers/STM32L4xx_HAL_Driver/Src/stm32l4xx_hal_hcd.c ****     case EP_TYPE_INTR:
 448:Drivers/STM32L4xx_HAL_Driver/Src/stm32l4xx_hal_hcd.c ****       if (direction == 0U)
 449:Drivers/STM32L4xx_HAL_Driver/Src/stm32l4xx_hal_hcd.c ****       {
 450:Drivers/STM32L4xx_HAL_Driver/Src/stm32l4xx_hal_hcd.c ****         /* Set the Data Toggle bit as per the Flag */
 451:Drivers/STM32L4xx_HAL_Driver/Src/stm32l4xx_hal_hcd.c ****         if (hhcd->hc[ch_num].toggle_out == 0U)
 452:Drivers/STM32L4xx_HAL_Driver/Src/stm32l4xx_hal_hcd.c ****         {
 453:Drivers/STM32L4xx_HAL_Driver/Src/stm32l4xx_hal_hcd.c ****           /* Put the PID 0 */
 454:Drivers/STM32L4xx_HAL_Driver/Src/stm32l4xx_hal_hcd.c ****           hhcd->hc[ch_num].data_pid = HC_PID_DATA0;
 455:Drivers/STM32L4xx_HAL_Driver/Src/stm32l4xx_hal_hcd.c ****         }
 456:Drivers/STM32L4xx_HAL_Driver/Src/stm32l4xx_hal_hcd.c ****         else
 457:Drivers/STM32L4xx_HAL_Driver/Src/stm32l4xx_hal_hcd.c ****         {
 458:Drivers/STM32L4xx_HAL_Driver/Src/stm32l4xx_hal_hcd.c ****           /* Put the PID 1 */
 459:Drivers/STM32L4xx_HAL_Driver/Src/stm32l4xx_hal_hcd.c ****           hhcd->hc[ch_num].data_pid = HC_PID_DATA1;
 460:Drivers/STM32L4xx_HAL_Driver/Src/stm32l4xx_hal_hcd.c ****         }
 461:Drivers/STM32L4xx_HAL_Driver/Src/stm32l4xx_hal_hcd.c ****       }
 462:Drivers/STM32L4xx_HAL_Driver/Src/stm32l4xx_hal_hcd.c ****       else
 463:Drivers/STM32L4xx_HAL_Driver/Src/stm32l4xx_hal_hcd.c ****       {
 464:Drivers/STM32L4xx_HAL_Driver/Src/stm32l4xx_hal_hcd.c ****         if (hhcd->hc[ch_num].toggle_in == 0U)
 465:Drivers/STM32L4xx_HAL_Driver/Src/stm32l4xx_hal_hcd.c ****         {
 466:Drivers/STM32L4xx_HAL_Driver/Src/stm32l4xx_hal_hcd.c ****           hhcd->hc[ch_num].data_pid = HC_PID_DATA0;
 467:Drivers/STM32L4xx_HAL_Driver/Src/stm32l4xx_hal_hcd.c ****         }
 468:Drivers/STM32L4xx_HAL_Driver/Src/stm32l4xx_hal_hcd.c ****         else
 469:Drivers/STM32L4xx_HAL_Driver/Src/stm32l4xx_hal_hcd.c ****         {
 470:Drivers/STM32L4xx_HAL_Driver/Src/stm32l4xx_hal_hcd.c ****           hhcd->hc[ch_num].data_pid = HC_PID_DATA1;
 471:Drivers/STM32L4xx_HAL_Driver/Src/stm32l4xx_hal_hcd.c ****         }
 472:Drivers/STM32L4xx_HAL_Driver/Src/stm32l4xx_hal_hcd.c ****       }
 473:Drivers/STM32L4xx_HAL_Driver/Src/stm32l4xx_hal_hcd.c ****       break;
 474:Drivers/STM32L4xx_HAL_Driver/Src/stm32l4xx_hal_hcd.c **** 
 475:Drivers/STM32L4xx_HAL_Driver/Src/stm32l4xx_hal_hcd.c ****     case EP_TYPE_ISOC:
 476:Drivers/STM32L4xx_HAL_Driver/Src/stm32l4xx_hal_hcd.c ****       hhcd->hc[ch_num].data_pid = HC_PID_DATA0;
 477:Drivers/STM32L4xx_HAL_Driver/Src/stm32l4xx_hal_hcd.c ****       break;
 478:Drivers/STM32L4xx_HAL_Driver/Src/stm32l4xx_hal_hcd.c **** 
 479:Drivers/STM32L4xx_HAL_Driver/Src/stm32l4xx_hal_hcd.c ****     default:
 480:Drivers/STM32L4xx_HAL_Driver/Src/stm32l4xx_hal_hcd.c ****       break;
 481:Drivers/STM32L4xx_HAL_Driver/Src/stm32l4xx_hal_hcd.c ****   }
 482:Drivers/STM32L4xx_HAL_Driver/Src/stm32l4xx_hal_hcd.c **** 
 483:Drivers/STM32L4xx_HAL_Driver/Src/stm32l4xx_hal_hcd.c ****   hhcd->hc[ch_num].xfer_buff = pbuff;
 484:Drivers/STM32L4xx_HAL_Driver/Src/stm32l4xx_hal_hcd.c ****   hhcd->hc[ch_num].xfer_len  = length;
 485:Drivers/STM32L4xx_HAL_Driver/Src/stm32l4xx_hal_hcd.c ****   hhcd->hc[ch_num].urb_state = URB_IDLE;
 486:Drivers/STM32L4xx_HAL_Driver/Src/stm32l4xx_hal_hcd.c ****   hhcd->hc[ch_num].xfer_count = 0U;
 487:Drivers/STM32L4xx_HAL_Driver/Src/stm32l4xx_hal_hcd.c ****   hhcd->hc[ch_num].ch_num = ch_num;
 488:Drivers/STM32L4xx_HAL_Driver/Src/stm32l4xx_hal_hcd.c ****   hhcd->hc[ch_num].state = HC_IDLE;
ARM GAS  /tmp/cckZR06T.s 			page 10


 489:Drivers/STM32L4xx_HAL_Driver/Src/stm32l4xx_hal_hcd.c **** 
 490:Drivers/STM32L4xx_HAL_Driver/Src/stm32l4xx_hal_hcd.c ****   return USB_HC_StartXfer(hhcd->Instance, &hhcd->hc[ch_num]);
 491:Drivers/STM32L4xx_HAL_Driver/Src/stm32l4xx_hal_hcd.c **** }
 492:Drivers/STM32L4xx_HAL_Driver/Src/stm32l4xx_hal_hcd.c **** 
 493:Drivers/STM32L4xx_HAL_Driver/Src/stm32l4xx_hal_hcd.c **** /**
 494:Drivers/STM32L4xx_HAL_Driver/Src/stm32l4xx_hal_hcd.c ****   * @brief  Handle HCD interrupt request.
 495:Drivers/STM32L4xx_HAL_Driver/Src/stm32l4xx_hal_hcd.c ****   * @param  hhcd HCD handle
 496:Drivers/STM32L4xx_HAL_Driver/Src/stm32l4xx_hal_hcd.c ****   * @retval None
 497:Drivers/STM32L4xx_HAL_Driver/Src/stm32l4xx_hal_hcd.c ****   */
 498:Drivers/STM32L4xx_HAL_Driver/Src/stm32l4xx_hal_hcd.c **** void HAL_HCD_IRQHandler(HCD_HandleTypeDef *hhcd)
 499:Drivers/STM32L4xx_HAL_Driver/Src/stm32l4xx_hal_hcd.c **** {
 500:Drivers/STM32L4xx_HAL_Driver/Src/stm32l4xx_hal_hcd.c ****   USB_OTG_GlobalTypeDef *USBx = hhcd->Instance;
 501:Drivers/STM32L4xx_HAL_Driver/Src/stm32l4xx_hal_hcd.c ****   uint32_t USBx_BASE = (uint32_t)USBx;
 502:Drivers/STM32L4xx_HAL_Driver/Src/stm32l4xx_hal_hcd.c ****   uint32_t i, interrupt;
 503:Drivers/STM32L4xx_HAL_Driver/Src/stm32l4xx_hal_hcd.c **** 
 504:Drivers/STM32L4xx_HAL_Driver/Src/stm32l4xx_hal_hcd.c ****   /* Ensure that we are in device mode */
 505:Drivers/STM32L4xx_HAL_Driver/Src/stm32l4xx_hal_hcd.c ****   if (USB_GetMode(hhcd->Instance) == USB_OTG_MODE_HOST)
 506:Drivers/STM32L4xx_HAL_Driver/Src/stm32l4xx_hal_hcd.c ****   {
 507:Drivers/STM32L4xx_HAL_Driver/Src/stm32l4xx_hal_hcd.c ****     /* Avoid spurious interrupt */
 508:Drivers/STM32L4xx_HAL_Driver/Src/stm32l4xx_hal_hcd.c ****     if (__HAL_HCD_IS_INVALID_INTERRUPT(hhcd))
 509:Drivers/STM32L4xx_HAL_Driver/Src/stm32l4xx_hal_hcd.c ****     {
 510:Drivers/STM32L4xx_HAL_Driver/Src/stm32l4xx_hal_hcd.c ****       return;
 511:Drivers/STM32L4xx_HAL_Driver/Src/stm32l4xx_hal_hcd.c ****     }
 512:Drivers/STM32L4xx_HAL_Driver/Src/stm32l4xx_hal_hcd.c **** 
 513:Drivers/STM32L4xx_HAL_Driver/Src/stm32l4xx_hal_hcd.c ****     if (__HAL_HCD_GET_FLAG(hhcd, USB_OTG_GINTSTS_PXFR_INCOMPISOOUT))
 514:Drivers/STM32L4xx_HAL_Driver/Src/stm32l4xx_hal_hcd.c ****     {
 515:Drivers/STM32L4xx_HAL_Driver/Src/stm32l4xx_hal_hcd.c ****       /* Incorrect mode, acknowledge the interrupt */
 516:Drivers/STM32L4xx_HAL_Driver/Src/stm32l4xx_hal_hcd.c ****       __HAL_HCD_CLEAR_FLAG(hhcd, USB_OTG_GINTSTS_PXFR_INCOMPISOOUT);
 517:Drivers/STM32L4xx_HAL_Driver/Src/stm32l4xx_hal_hcd.c ****     }
 518:Drivers/STM32L4xx_HAL_Driver/Src/stm32l4xx_hal_hcd.c **** 
 519:Drivers/STM32L4xx_HAL_Driver/Src/stm32l4xx_hal_hcd.c ****     if (__HAL_HCD_GET_FLAG(hhcd, USB_OTG_GINTSTS_IISOIXFR))
 520:Drivers/STM32L4xx_HAL_Driver/Src/stm32l4xx_hal_hcd.c ****     {
 521:Drivers/STM32L4xx_HAL_Driver/Src/stm32l4xx_hal_hcd.c ****       /* Incorrect mode, acknowledge the interrupt */
 522:Drivers/STM32L4xx_HAL_Driver/Src/stm32l4xx_hal_hcd.c ****       __HAL_HCD_CLEAR_FLAG(hhcd, USB_OTG_GINTSTS_IISOIXFR);
 523:Drivers/STM32L4xx_HAL_Driver/Src/stm32l4xx_hal_hcd.c ****     }
 524:Drivers/STM32L4xx_HAL_Driver/Src/stm32l4xx_hal_hcd.c **** 
 525:Drivers/STM32L4xx_HAL_Driver/Src/stm32l4xx_hal_hcd.c ****     if (__HAL_HCD_GET_FLAG(hhcd, USB_OTG_GINTSTS_PTXFE))
 526:Drivers/STM32L4xx_HAL_Driver/Src/stm32l4xx_hal_hcd.c ****     {
 527:Drivers/STM32L4xx_HAL_Driver/Src/stm32l4xx_hal_hcd.c ****       /* Incorrect mode, acknowledge the interrupt */
 528:Drivers/STM32L4xx_HAL_Driver/Src/stm32l4xx_hal_hcd.c ****       __HAL_HCD_CLEAR_FLAG(hhcd, USB_OTG_GINTSTS_PTXFE);
 529:Drivers/STM32L4xx_HAL_Driver/Src/stm32l4xx_hal_hcd.c ****     }
 530:Drivers/STM32L4xx_HAL_Driver/Src/stm32l4xx_hal_hcd.c **** 
 531:Drivers/STM32L4xx_HAL_Driver/Src/stm32l4xx_hal_hcd.c ****     if (__HAL_HCD_GET_FLAG(hhcd, USB_OTG_GINTSTS_MMIS))
 532:Drivers/STM32L4xx_HAL_Driver/Src/stm32l4xx_hal_hcd.c ****     {
 533:Drivers/STM32L4xx_HAL_Driver/Src/stm32l4xx_hal_hcd.c ****       /* Incorrect mode, acknowledge the interrupt */
 534:Drivers/STM32L4xx_HAL_Driver/Src/stm32l4xx_hal_hcd.c ****       __HAL_HCD_CLEAR_FLAG(hhcd, USB_OTG_GINTSTS_MMIS);
 535:Drivers/STM32L4xx_HAL_Driver/Src/stm32l4xx_hal_hcd.c ****     }
 536:Drivers/STM32L4xx_HAL_Driver/Src/stm32l4xx_hal_hcd.c **** 
 537:Drivers/STM32L4xx_HAL_Driver/Src/stm32l4xx_hal_hcd.c ****     /* Handle Host Disconnect Interrupts */
 538:Drivers/STM32L4xx_HAL_Driver/Src/stm32l4xx_hal_hcd.c ****     if (__HAL_HCD_GET_FLAG(hhcd, USB_OTG_GINTSTS_DISCINT))
 539:Drivers/STM32L4xx_HAL_Driver/Src/stm32l4xx_hal_hcd.c ****     {
 540:Drivers/STM32L4xx_HAL_Driver/Src/stm32l4xx_hal_hcd.c **** 
 541:Drivers/STM32L4xx_HAL_Driver/Src/stm32l4xx_hal_hcd.c ****       /* Cleanup HPRT */
 542:Drivers/STM32L4xx_HAL_Driver/Src/stm32l4xx_hal_hcd.c ****       USBx_HPRT0 &= ~(USB_OTG_HPRT_PENA | USB_OTG_HPRT_PCDET | \
 543:Drivers/STM32L4xx_HAL_Driver/Src/stm32l4xx_hal_hcd.c ****                       USB_OTG_HPRT_PENCHNG | USB_OTG_HPRT_POCCHNG);
 544:Drivers/STM32L4xx_HAL_Driver/Src/stm32l4xx_hal_hcd.c **** 
 545:Drivers/STM32L4xx_HAL_Driver/Src/stm32l4xx_hal_hcd.c ****       /* Handle Host Port Disconnect Interrupt */
ARM GAS  /tmp/cckZR06T.s 			page 11


 546:Drivers/STM32L4xx_HAL_Driver/Src/stm32l4xx_hal_hcd.c **** #if (USE_HAL_HCD_REGISTER_CALLBACKS == 1U)
 547:Drivers/STM32L4xx_HAL_Driver/Src/stm32l4xx_hal_hcd.c ****       hhcd->DisconnectCallback(hhcd);
 548:Drivers/STM32L4xx_HAL_Driver/Src/stm32l4xx_hal_hcd.c **** #else
 549:Drivers/STM32L4xx_HAL_Driver/Src/stm32l4xx_hal_hcd.c ****       HAL_HCD_Disconnect_Callback(hhcd);
 550:Drivers/STM32L4xx_HAL_Driver/Src/stm32l4xx_hal_hcd.c **** #endif /* USE_HAL_HCD_REGISTER_CALLBACKS */
 551:Drivers/STM32L4xx_HAL_Driver/Src/stm32l4xx_hal_hcd.c **** 
 552:Drivers/STM32L4xx_HAL_Driver/Src/stm32l4xx_hal_hcd.c ****       (void)USB_InitFSLSPClkSel(hhcd->Instance, HCFG_48_MHZ);
 553:Drivers/STM32L4xx_HAL_Driver/Src/stm32l4xx_hal_hcd.c ****       __HAL_HCD_CLEAR_FLAG(hhcd, USB_OTG_GINTSTS_DISCINT);
 554:Drivers/STM32L4xx_HAL_Driver/Src/stm32l4xx_hal_hcd.c ****     }
 555:Drivers/STM32L4xx_HAL_Driver/Src/stm32l4xx_hal_hcd.c **** 
 556:Drivers/STM32L4xx_HAL_Driver/Src/stm32l4xx_hal_hcd.c ****     /* Handle Host Port Interrupts */
 557:Drivers/STM32L4xx_HAL_Driver/Src/stm32l4xx_hal_hcd.c ****     if (__HAL_HCD_GET_FLAG(hhcd, USB_OTG_GINTSTS_HPRTINT))
 558:Drivers/STM32L4xx_HAL_Driver/Src/stm32l4xx_hal_hcd.c ****     {
 559:Drivers/STM32L4xx_HAL_Driver/Src/stm32l4xx_hal_hcd.c ****       HCD_Port_IRQHandler(hhcd);
 560:Drivers/STM32L4xx_HAL_Driver/Src/stm32l4xx_hal_hcd.c ****     }
 561:Drivers/STM32L4xx_HAL_Driver/Src/stm32l4xx_hal_hcd.c **** 
 562:Drivers/STM32L4xx_HAL_Driver/Src/stm32l4xx_hal_hcd.c ****     /* Handle Host SOF Interrupt */
 563:Drivers/STM32L4xx_HAL_Driver/Src/stm32l4xx_hal_hcd.c ****     if (__HAL_HCD_GET_FLAG(hhcd, USB_OTG_GINTSTS_SOF))
 564:Drivers/STM32L4xx_HAL_Driver/Src/stm32l4xx_hal_hcd.c ****     {
 565:Drivers/STM32L4xx_HAL_Driver/Src/stm32l4xx_hal_hcd.c **** #if (USE_HAL_HCD_REGISTER_CALLBACKS == 1U)
 566:Drivers/STM32L4xx_HAL_Driver/Src/stm32l4xx_hal_hcd.c ****       hhcd->SOFCallback(hhcd);
 567:Drivers/STM32L4xx_HAL_Driver/Src/stm32l4xx_hal_hcd.c **** #else
 568:Drivers/STM32L4xx_HAL_Driver/Src/stm32l4xx_hal_hcd.c ****       HAL_HCD_SOF_Callback(hhcd);
 569:Drivers/STM32L4xx_HAL_Driver/Src/stm32l4xx_hal_hcd.c **** #endif /* USE_HAL_HCD_REGISTER_CALLBACKS */
 570:Drivers/STM32L4xx_HAL_Driver/Src/stm32l4xx_hal_hcd.c **** 
 571:Drivers/STM32L4xx_HAL_Driver/Src/stm32l4xx_hal_hcd.c ****       __HAL_HCD_CLEAR_FLAG(hhcd, USB_OTG_GINTSTS_SOF);
 572:Drivers/STM32L4xx_HAL_Driver/Src/stm32l4xx_hal_hcd.c ****     }
 573:Drivers/STM32L4xx_HAL_Driver/Src/stm32l4xx_hal_hcd.c **** 
 574:Drivers/STM32L4xx_HAL_Driver/Src/stm32l4xx_hal_hcd.c ****     /* Handle Host channel Interrupt */
 575:Drivers/STM32L4xx_HAL_Driver/Src/stm32l4xx_hal_hcd.c ****     if (__HAL_HCD_GET_FLAG(hhcd, USB_OTG_GINTSTS_HCINT))
 576:Drivers/STM32L4xx_HAL_Driver/Src/stm32l4xx_hal_hcd.c ****     {
 577:Drivers/STM32L4xx_HAL_Driver/Src/stm32l4xx_hal_hcd.c ****       interrupt = USB_HC_ReadInterrupt(hhcd->Instance);
 578:Drivers/STM32L4xx_HAL_Driver/Src/stm32l4xx_hal_hcd.c ****       for (i = 0U; i < hhcd->Init.Host_channels; i++)
 579:Drivers/STM32L4xx_HAL_Driver/Src/stm32l4xx_hal_hcd.c ****       {
 580:Drivers/STM32L4xx_HAL_Driver/Src/stm32l4xx_hal_hcd.c ****         if ((interrupt & (1UL << (i & 0xFU))) != 0U)
 581:Drivers/STM32L4xx_HAL_Driver/Src/stm32l4xx_hal_hcd.c ****         {
 582:Drivers/STM32L4xx_HAL_Driver/Src/stm32l4xx_hal_hcd.c ****           if ((USBx_HC(i)->HCCHAR & USB_OTG_HCCHAR_EPDIR) == USB_OTG_HCCHAR_EPDIR)
 583:Drivers/STM32L4xx_HAL_Driver/Src/stm32l4xx_hal_hcd.c ****           {
 584:Drivers/STM32L4xx_HAL_Driver/Src/stm32l4xx_hal_hcd.c ****             HCD_HC_IN_IRQHandler(hhcd, (uint8_t)i);
 585:Drivers/STM32L4xx_HAL_Driver/Src/stm32l4xx_hal_hcd.c ****           }
 586:Drivers/STM32L4xx_HAL_Driver/Src/stm32l4xx_hal_hcd.c ****           else
 587:Drivers/STM32L4xx_HAL_Driver/Src/stm32l4xx_hal_hcd.c ****           {
 588:Drivers/STM32L4xx_HAL_Driver/Src/stm32l4xx_hal_hcd.c ****             HCD_HC_OUT_IRQHandler(hhcd, (uint8_t)i);
 589:Drivers/STM32L4xx_HAL_Driver/Src/stm32l4xx_hal_hcd.c ****           }
 590:Drivers/STM32L4xx_HAL_Driver/Src/stm32l4xx_hal_hcd.c ****         }
 591:Drivers/STM32L4xx_HAL_Driver/Src/stm32l4xx_hal_hcd.c ****       }
 592:Drivers/STM32L4xx_HAL_Driver/Src/stm32l4xx_hal_hcd.c ****       __HAL_HCD_CLEAR_FLAG(hhcd, USB_OTG_GINTSTS_HCINT);
 593:Drivers/STM32L4xx_HAL_Driver/Src/stm32l4xx_hal_hcd.c ****     }
 594:Drivers/STM32L4xx_HAL_Driver/Src/stm32l4xx_hal_hcd.c **** 
 595:Drivers/STM32L4xx_HAL_Driver/Src/stm32l4xx_hal_hcd.c ****     /* Handle Rx Queue Level Interrupts */
 596:Drivers/STM32L4xx_HAL_Driver/Src/stm32l4xx_hal_hcd.c ****     if ((__HAL_HCD_GET_FLAG(hhcd, USB_OTG_GINTSTS_RXFLVL)) != 0U)
 597:Drivers/STM32L4xx_HAL_Driver/Src/stm32l4xx_hal_hcd.c ****     {
 598:Drivers/STM32L4xx_HAL_Driver/Src/stm32l4xx_hal_hcd.c ****       USB_MASK_INTERRUPT(hhcd->Instance, USB_OTG_GINTSTS_RXFLVL);
 599:Drivers/STM32L4xx_HAL_Driver/Src/stm32l4xx_hal_hcd.c **** 
 600:Drivers/STM32L4xx_HAL_Driver/Src/stm32l4xx_hal_hcd.c ****       HCD_RXQLVL_IRQHandler(hhcd);
 601:Drivers/STM32L4xx_HAL_Driver/Src/stm32l4xx_hal_hcd.c **** 
 602:Drivers/STM32L4xx_HAL_Driver/Src/stm32l4xx_hal_hcd.c ****       USB_UNMASK_INTERRUPT(hhcd->Instance, USB_OTG_GINTSTS_RXFLVL);
ARM GAS  /tmp/cckZR06T.s 			page 12


 603:Drivers/STM32L4xx_HAL_Driver/Src/stm32l4xx_hal_hcd.c ****     }
 604:Drivers/STM32L4xx_HAL_Driver/Src/stm32l4xx_hal_hcd.c ****   }
 605:Drivers/STM32L4xx_HAL_Driver/Src/stm32l4xx_hal_hcd.c **** }
 606:Drivers/STM32L4xx_HAL_Driver/Src/stm32l4xx_hal_hcd.c **** 
 607:Drivers/STM32L4xx_HAL_Driver/Src/stm32l4xx_hal_hcd.c **** /**
 608:Drivers/STM32L4xx_HAL_Driver/Src/stm32l4xx_hal_hcd.c ****   * @brief  SOF callback.
 609:Drivers/STM32L4xx_HAL_Driver/Src/stm32l4xx_hal_hcd.c ****   * @param  hhcd HCD handle
 610:Drivers/STM32L4xx_HAL_Driver/Src/stm32l4xx_hal_hcd.c ****   * @retval None
 611:Drivers/STM32L4xx_HAL_Driver/Src/stm32l4xx_hal_hcd.c ****   */
 612:Drivers/STM32L4xx_HAL_Driver/Src/stm32l4xx_hal_hcd.c **** __weak void HAL_HCD_SOF_Callback(HCD_HandleTypeDef *hhcd)
 613:Drivers/STM32L4xx_HAL_Driver/Src/stm32l4xx_hal_hcd.c **** {
 614:Drivers/STM32L4xx_HAL_Driver/Src/stm32l4xx_hal_hcd.c ****   /* Prevent unused argument(s) compilation warning */
 615:Drivers/STM32L4xx_HAL_Driver/Src/stm32l4xx_hal_hcd.c ****   UNUSED(hhcd);
 616:Drivers/STM32L4xx_HAL_Driver/Src/stm32l4xx_hal_hcd.c **** 
 617:Drivers/STM32L4xx_HAL_Driver/Src/stm32l4xx_hal_hcd.c ****   /* NOTE : This function should not be modified, when the callback is needed,
 618:Drivers/STM32L4xx_HAL_Driver/Src/stm32l4xx_hal_hcd.c ****             the HAL_HCD_SOF_Callback could be implemented in the user file
 619:Drivers/STM32L4xx_HAL_Driver/Src/stm32l4xx_hal_hcd.c ****    */
 620:Drivers/STM32L4xx_HAL_Driver/Src/stm32l4xx_hal_hcd.c **** }
 621:Drivers/STM32L4xx_HAL_Driver/Src/stm32l4xx_hal_hcd.c **** 
 622:Drivers/STM32L4xx_HAL_Driver/Src/stm32l4xx_hal_hcd.c **** /**
 623:Drivers/STM32L4xx_HAL_Driver/Src/stm32l4xx_hal_hcd.c ****   * @brief Connection Event callback.
 624:Drivers/STM32L4xx_HAL_Driver/Src/stm32l4xx_hal_hcd.c ****   * @param  hhcd HCD handle
 625:Drivers/STM32L4xx_HAL_Driver/Src/stm32l4xx_hal_hcd.c ****   * @retval None
 626:Drivers/STM32L4xx_HAL_Driver/Src/stm32l4xx_hal_hcd.c ****   */
 627:Drivers/STM32L4xx_HAL_Driver/Src/stm32l4xx_hal_hcd.c **** __weak void HAL_HCD_Connect_Callback(HCD_HandleTypeDef *hhcd)
 628:Drivers/STM32L4xx_HAL_Driver/Src/stm32l4xx_hal_hcd.c **** {
 629:Drivers/STM32L4xx_HAL_Driver/Src/stm32l4xx_hal_hcd.c ****   /* Prevent unused argument(s) compilation warning */
 630:Drivers/STM32L4xx_HAL_Driver/Src/stm32l4xx_hal_hcd.c ****   UNUSED(hhcd);
 631:Drivers/STM32L4xx_HAL_Driver/Src/stm32l4xx_hal_hcd.c **** 
 632:Drivers/STM32L4xx_HAL_Driver/Src/stm32l4xx_hal_hcd.c ****   /* NOTE : This function should not be modified, when the callback is needed,
 633:Drivers/STM32L4xx_HAL_Driver/Src/stm32l4xx_hal_hcd.c ****             the HAL_HCD_Connect_Callback could be implemented in the user file
 634:Drivers/STM32L4xx_HAL_Driver/Src/stm32l4xx_hal_hcd.c ****    */
 635:Drivers/STM32L4xx_HAL_Driver/Src/stm32l4xx_hal_hcd.c **** }
 636:Drivers/STM32L4xx_HAL_Driver/Src/stm32l4xx_hal_hcd.c **** 
 637:Drivers/STM32L4xx_HAL_Driver/Src/stm32l4xx_hal_hcd.c **** /**
 638:Drivers/STM32L4xx_HAL_Driver/Src/stm32l4xx_hal_hcd.c ****   * @brief  Disconnection Event callback.
 639:Drivers/STM32L4xx_HAL_Driver/Src/stm32l4xx_hal_hcd.c ****   * @param  hhcd HCD handle
 640:Drivers/STM32L4xx_HAL_Driver/Src/stm32l4xx_hal_hcd.c ****   * @retval None
 641:Drivers/STM32L4xx_HAL_Driver/Src/stm32l4xx_hal_hcd.c ****   */
 642:Drivers/STM32L4xx_HAL_Driver/Src/stm32l4xx_hal_hcd.c **** __weak void HAL_HCD_Disconnect_Callback(HCD_HandleTypeDef *hhcd)
 643:Drivers/STM32L4xx_HAL_Driver/Src/stm32l4xx_hal_hcd.c **** {
 644:Drivers/STM32L4xx_HAL_Driver/Src/stm32l4xx_hal_hcd.c ****   /* Prevent unused argument(s) compilation warning */
 645:Drivers/STM32L4xx_HAL_Driver/Src/stm32l4xx_hal_hcd.c ****   UNUSED(hhcd);
 646:Drivers/STM32L4xx_HAL_Driver/Src/stm32l4xx_hal_hcd.c **** 
 647:Drivers/STM32L4xx_HAL_Driver/Src/stm32l4xx_hal_hcd.c ****   /* NOTE : This function should not be modified, when the callback is needed,
 648:Drivers/STM32L4xx_HAL_Driver/Src/stm32l4xx_hal_hcd.c ****             the HAL_HCD_Disconnect_Callback could be implemented in the user file
 649:Drivers/STM32L4xx_HAL_Driver/Src/stm32l4xx_hal_hcd.c ****    */
 650:Drivers/STM32L4xx_HAL_Driver/Src/stm32l4xx_hal_hcd.c **** }
 651:Drivers/STM32L4xx_HAL_Driver/Src/stm32l4xx_hal_hcd.c **** 
 652:Drivers/STM32L4xx_HAL_Driver/Src/stm32l4xx_hal_hcd.c **** /**
 653:Drivers/STM32L4xx_HAL_Driver/Src/stm32l4xx_hal_hcd.c ****   * @brief  Port Enabled  Event callback.
 654:Drivers/STM32L4xx_HAL_Driver/Src/stm32l4xx_hal_hcd.c ****   * @param  hhcd HCD handle
 655:Drivers/STM32L4xx_HAL_Driver/Src/stm32l4xx_hal_hcd.c ****   * @retval None
 656:Drivers/STM32L4xx_HAL_Driver/Src/stm32l4xx_hal_hcd.c ****   */
 657:Drivers/STM32L4xx_HAL_Driver/Src/stm32l4xx_hal_hcd.c **** __weak void HAL_HCD_PortEnabled_Callback(HCD_HandleTypeDef *hhcd)
 658:Drivers/STM32L4xx_HAL_Driver/Src/stm32l4xx_hal_hcd.c **** {
 659:Drivers/STM32L4xx_HAL_Driver/Src/stm32l4xx_hal_hcd.c ****   /* Prevent unused argument(s) compilation warning */
ARM GAS  /tmp/cckZR06T.s 			page 13


 660:Drivers/STM32L4xx_HAL_Driver/Src/stm32l4xx_hal_hcd.c ****   UNUSED(hhcd);
 661:Drivers/STM32L4xx_HAL_Driver/Src/stm32l4xx_hal_hcd.c **** 
 662:Drivers/STM32L4xx_HAL_Driver/Src/stm32l4xx_hal_hcd.c ****   /* NOTE : This function should not be modified, when the callback is needed,
 663:Drivers/STM32L4xx_HAL_Driver/Src/stm32l4xx_hal_hcd.c ****             the HAL_HCD_Disconnect_Callback could be implemented in the user file
 664:Drivers/STM32L4xx_HAL_Driver/Src/stm32l4xx_hal_hcd.c ****    */
 665:Drivers/STM32L4xx_HAL_Driver/Src/stm32l4xx_hal_hcd.c **** }
 666:Drivers/STM32L4xx_HAL_Driver/Src/stm32l4xx_hal_hcd.c **** 
 667:Drivers/STM32L4xx_HAL_Driver/Src/stm32l4xx_hal_hcd.c **** /**
 668:Drivers/STM32L4xx_HAL_Driver/Src/stm32l4xx_hal_hcd.c ****   * @brief  Port Disabled  Event callback.
 669:Drivers/STM32L4xx_HAL_Driver/Src/stm32l4xx_hal_hcd.c ****   * @param  hhcd HCD handle
 670:Drivers/STM32L4xx_HAL_Driver/Src/stm32l4xx_hal_hcd.c ****   * @retval None
 671:Drivers/STM32L4xx_HAL_Driver/Src/stm32l4xx_hal_hcd.c ****   */
 672:Drivers/STM32L4xx_HAL_Driver/Src/stm32l4xx_hal_hcd.c **** __weak void HAL_HCD_PortDisabled_Callback(HCD_HandleTypeDef *hhcd)
 673:Drivers/STM32L4xx_HAL_Driver/Src/stm32l4xx_hal_hcd.c **** {
 674:Drivers/STM32L4xx_HAL_Driver/Src/stm32l4xx_hal_hcd.c ****   /* Prevent unused argument(s) compilation warning */
 675:Drivers/STM32L4xx_HAL_Driver/Src/stm32l4xx_hal_hcd.c ****   UNUSED(hhcd);
 676:Drivers/STM32L4xx_HAL_Driver/Src/stm32l4xx_hal_hcd.c **** 
 677:Drivers/STM32L4xx_HAL_Driver/Src/stm32l4xx_hal_hcd.c ****   /* NOTE : This function should not be modified, when the callback is needed,
 678:Drivers/STM32L4xx_HAL_Driver/Src/stm32l4xx_hal_hcd.c ****             the HAL_HCD_Disconnect_Callback could be implemented in the user file
 679:Drivers/STM32L4xx_HAL_Driver/Src/stm32l4xx_hal_hcd.c ****    */
 680:Drivers/STM32L4xx_HAL_Driver/Src/stm32l4xx_hal_hcd.c **** }
 681:Drivers/STM32L4xx_HAL_Driver/Src/stm32l4xx_hal_hcd.c **** 
 682:Drivers/STM32L4xx_HAL_Driver/Src/stm32l4xx_hal_hcd.c **** /**
 683:Drivers/STM32L4xx_HAL_Driver/Src/stm32l4xx_hal_hcd.c ****   * @brief  Notify URB state change callback.
 684:Drivers/STM32L4xx_HAL_Driver/Src/stm32l4xx_hal_hcd.c ****   * @param  hhcd HCD handle
 685:Drivers/STM32L4xx_HAL_Driver/Src/stm32l4xx_hal_hcd.c ****   * @param  chnum Channel number.
 686:Drivers/STM32L4xx_HAL_Driver/Src/stm32l4xx_hal_hcd.c ****   *         This parameter can be a value from 1 to 15
 687:Drivers/STM32L4xx_HAL_Driver/Src/stm32l4xx_hal_hcd.c ****   * @param  urb_state:
 688:Drivers/STM32L4xx_HAL_Driver/Src/stm32l4xx_hal_hcd.c ****   *          This parameter can be one of these values:
 689:Drivers/STM32L4xx_HAL_Driver/Src/stm32l4xx_hal_hcd.c ****   *            URB_IDLE/
 690:Drivers/STM32L4xx_HAL_Driver/Src/stm32l4xx_hal_hcd.c ****   *            URB_DONE/
 691:Drivers/STM32L4xx_HAL_Driver/Src/stm32l4xx_hal_hcd.c ****   *            URB_NOTREADY/
 692:Drivers/STM32L4xx_HAL_Driver/Src/stm32l4xx_hal_hcd.c ****   *            URB_NYET/
 693:Drivers/STM32L4xx_HAL_Driver/Src/stm32l4xx_hal_hcd.c ****   *            URB_ERROR/
 694:Drivers/STM32L4xx_HAL_Driver/Src/stm32l4xx_hal_hcd.c ****   *            URB_STALL/
 695:Drivers/STM32L4xx_HAL_Driver/Src/stm32l4xx_hal_hcd.c ****   * @retval None
 696:Drivers/STM32L4xx_HAL_Driver/Src/stm32l4xx_hal_hcd.c ****   */
 697:Drivers/STM32L4xx_HAL_Driver/Src/stm32l4xx_hal_hcd.c **** __weak void HAL_HCD_HC_NotifyURBChange_Callback(HCD_HandleTypeDef *hhcd, uint8_t chnum, HCD_URBStat
 698:Drivers/STM32L4xx_HAL_Driver/Src/stm32l4xx_hal_hcd.c **** {
 699:Drivers/STM32L4xx_HAL_Driver/Src/stm32l4xx_hal_hcd.c ****   /* Prevent unused argument(s) compilation warning */
 700:Drivers/STM32L4xx_HAL_Driver/Src/stm32l4xx_hal_hcd.c ****   UNUSED(hhcd);
 701:Drivers/STM32L4xx_HAL_Driver/Src/stm32l4xx_hal_hcd.c ****   UNUSED(chnum);
 702:Drivers/STM32L4xx_HAL_Driver/Src/stm32l4xx_hal_hcd.c ****   UNUSED(urb_state);
 703:Drivers/STM32L4xx_HAL_Driver/Src/stm32l4xx_hal_hcd.c **** 
 704:Drivers/STM32L4xx_HAL_Driver/Src/stm32l4xx_hal_hcd.c ****   /* NOTE : This function should not be modified, when the callback is needed,
 705:Drivers/STM32L4xx_HAL_Driver/Src/stm32l4xx_hal_hcd.c ****             the HAL_HCD_HC_NotifyURBChange_Callback could be implemented in the user file
 706:Drivers/STM32L4xx_HAL_Driver/Src/stm32l4xx_hal_hcd.c ****    */
 707:Drivers/STM32L4xx_HAL_Driver/Src/stm32l4xx_hal_hcd.c **** }
 708:Drivers/STM32L4xx_HAL_Driver/Src/stm32l4xx_hal_hcd.c **** 
 709:Drivers/STM32L4xx_HAL_Driver/Src/stm32l4xx_hal_hcd.c **** #if (USE_HAL_HCD_REGISTER_CALLBACKS == 1U)
 710:Drivers/STM32L4xx_HAL_Driver/Src/stm32l4xx_hal_hcd.c **** /**
 711:Drivers/STM32L4xx_HAL_Driver/Src/stm32l4xx_hal_hcd.c ****   * @brief  Register a User USB HCD Callback
 712:Drivers/STM32L4xx_HAL_Driver/Src/stm32l4xx_hal_hcd.c ****   *         To be used instead of the weak predefined callback
 713:Drivers/STM32L4xx_HAL_Driver/Src/stm32l4xx_hal_hcd.c ****   * @param  hhcd USB HCD handle
 714:Drivers/STM32L4xx_HAL_Driver/Src/stm32l4xx_hal_hcd.c ****   * @param  CallbackID ID of the callback to be registered
 715:Drivers/STM32L4xx_HAL_Driver/Src/stm32l4xx_hal_hcd.c ****   *         This parameter can be one of the following values:
 716:Drivers/STM32L4xx_HAL_Driver/Src/stm32l4xx_hal_hcd.c ****   *          @arg @ref HAL_HCD_SOF_CB_ID USB HCD SOF callback ID
ARM GAS  /tmp/cckZR06T.s 			page 14


 717:Drivers/STM32L4xx_HAL_Driver/Src/stm32l4xx_hal_hcd.c ****   *          @arg @ref HAL_HCD_CONNECT_CB_ID USB HCD Connect callback ID
 718:Drivers/STM32L4xx_HAL_Driver/Src/stm32l4xx_hal_hcd.c ****   *          @arg @ref HAL_HCD_DISCONNECT_CB_ID OTG HCD Disconnect callback ID
 719:Drivers/STM32L4xx_HAL_Driver/Src/stm32l4xx_hal_hcd.c ****   *          @arg @ref HAL_HCD_PORT_ENABLED_CB_ID USB HCD Port Enable callback ID
 720:Drivers/STM32L4xx_HAL_Driver/Src/stm32l4xx_hal_hcd.c ****   *          @arg @ref HAL_HCD_PORT_DISABLED_CB_ID USB HCD Port Disable callback ID
 721:Drivers/STM32L4xx_HAL_Driver/Src/stm32l4xx_hal_hcd.c ****   *          @arg @ref HAL_HCD_MSPINIT_CB_ID MspDeInit callback ID
 722:Drivers/STM32L4xx_HAL_Driver/Src/stm32l4xx_hal_hcd.c ****   *          @arg @ref HAL_HCD_MSPDEINIT_CB_ID MspDeInit callback ID
 723:Drivers/STM32L4xx_HAL_Driver/Src/stm32l4xx_hal_hcd.c ****   * @param  pCallback pointer to the Callback function
 724:Drivers/STM32L4xx_HAL_Driver/Src/stm32l4xx_hal_hcd.c ****   * @retval HAL status
 725:Drivers/STM32L4xx_HAL_Driver/Src/stm32l4xx_hal_hcd.c ****   */
 726:Drivers/STM32L4xx_HAL_Driver/Src/stm32l4xx_hal_hcd.c **** HAL_StatusTypeDef HAL_HCD_RegisterCallback(HCD_HandleTypeDef *hhcd, HAL_HCD_CallbackIDTypeDef Callb
 727:Drivers/STM32L4xx_HAL_Driver/Src/stm32l4xx_hal_hcd.c **** {
 728:Drivers/STM32L4xx_HAL_Driver/Src/stm32l4xx_hal_hcd.c ****   HAL_StatusTypeDef status = HAL_OK;
 729:Drivers/STM32L4xx_HAL_Driver/Src/stm32l4xx_hal_hcd.c **** 
 730:Drivers/STM32L4xx_HAL_Driver/Src/stm32l4xx_hal_hcd.c ****   if (pCallback == NULL)
 731:Drivers/STM32L4xx_HAL_Driver/Src/stm32l4xx_hal_hcd.c ****   {
 732:Drivers/STM32L4xx_HAL_Driver/Src/stm32l4xx_hal_hcd.c ****     /* Update the error code */
 733:Drivers/STM32L4xx_HAL_Driver/Src/stm32l4xx_hal_hcd.c ****     hhcd->ErrorCode |= HAL_HCD_ERROR_INVALID_CALLBACK;
 734:Drivers/STM32L4xx_HAL_Driver/Src/stm32l4xx_hal_hcd.c ****     return HAL_ERROR;
 735:Drivers/STM32L4xx_HAL_Driver/Src/stm32l4xx_hal_hcd.c ****   }
 736:Drivers/STM32L4xx_HAL_Driver/Src/stm32l4xx_hal_hcd.c ****   /* Process locked */
 737:Drivers/STM32L4xx_HAL_Driver/Src/stm32l4xx_hal_hcd.c ****   __HAL_LOCK(hhcd);
 738:Drivers/STM32L4xx_HAL_Driver/Src/stm32l4xx_hal_hcd.c **** 
 739:Drivers/STM32L4xx_HAL_Driver/Src/stm32l4xx_hal_hcd.c ****   if (hhcd->State == HAL_HCD_STATE_READY)
 740:Drivers/STM32L4xx_HAL_Driver/Src/stm32l4xx_hal_hcd.c ****   {
 741:Drivers/STM32L4xx_HAL_Driver/Src/stm32l4xx_hal_hcd.c ****     switch (CallbackID)
 742:Drivers/STM32L4xx_HAL_Driver/Src/stm32l4xx_hal_hcd.c ****     {
 743:Drivers/STM32L4xx_HAL_Driver/Src/stm32l4xx_hal_hcd.c ****       case HAL_HCD_SOF_CB_ID :
 744:Drivers/STM32L4xx_HAL_Driver/Src/stm32l4xx_hal_hcd.c ****         hhcd->SOFCallback = pCallback;
 745:Drivers/STM32L4xx_HAL_Driver/Src/stm32l4xx_hal_hcd.c ****         break;
 746:Drivers/STM32L4xx_HAL_Driver/Src/stm32l4xx_hal_hcd.c **** 
 747:Drivers/STM32L4xx_HAL_Driver/Src/stm32l4xx_hal_hcd.c ****       case HAL_HCD_CONNECT_CB_ID :
 748:Drivers/STM32L4xx_HAL_Driver/Src/stm32l4xx_hal_hcd.c ****         hhcd->ConnectCallback = pCallback;
 749:Drivers/STM32L4xx_HAL_Driver/Src/stm32l4xx_hal_hcd.c ****         break;
 750:Drivers/STM32L4xx_HAL_Driver/Src/stm32l4xx_hal_hcd.c **** 
 751:Drivers/STM32L4xx_HAL_Driver/Src/stm32l4xx_hal_hcd.c ****       case HAL_HCD_DISCONNECT_CB_ID :
 752:Drivers/STM32L4xx_HAL_Driver/Src/stm32l4xx_hal_hcd.c ****         hhcd->DisconnectCallback = pCallback;
 753:Drivers/STM32L4xx_HAL_Driver/Src/stm32l4xx_hal_hcd.c ****         break;
 754:Drivers/STM32L4xx_HAL_Driver/Src/stm32l4xx_hal_hcd.c **** 
 755:Drivers/STM32L4xx_HAL_Driver/Src/stm32l4xx_hal_hcd.c ****       case HAL_HCD_PORT_ENABLED_CB_ID :
 756:Drivers/STM32L4xx_HAL_Driver/Src/stm32l4xx_hal_hcd.c ****         hhcd->PortEnabledCallback = pCallback;
 757:Drivers/STM32L4xx_HAL_Driver/Src/stm32l4xx_hal_hcd.c ****         break;
 758:Drivers/STM32L4xx_HAL_Driver/Src/stm32l4xx_hal_hcd.c **** 
 759:Drivers/STM32L4xx_HAL_Driver/Src/stm32l4xx_hal_hcd.c ****       case HAL_HCD_PORT_DISABLED_CB_ID :
 760:Drivers/STM32L4xx_HAL_Driver/Src/stm32l4xx_hal_hcd.c ****         hhcd->PortDisabledCallback = pCallback;
 761:Drivers/STM32L4xx_HAL_Driver/Src/stm32l4xx_hal_hcd.c ****         break;
 762:Drivers/STM32L4xx_HAL_Driver/Src/stm32l4xx_hal_hcd.c **** 
 763:Drivers/STM32L4xx_HAL_Driver/Src/stm32l4xx_hal_hcd.c ****       case HAL_HCD_MSPINIT_CB_ID :
 764:Drivers/STM32L4xx_HAL_Driver/Src/stm32l4xx_hal_hcd.c ****         hhcd->MspInitCallback = pCallback;
 765:Drivers/STM32L4xx_HAL_Driver/Src/stm32l4xx_hal_hcd.c ****         break;
 766:Drivers/STM32L4xx_HAL_Driver/Src/stm32l4xx_hal_hcd.c **** 
 767:Drivers/STM32L4xx_HAL_Driver/Src/stm32l4xx_hal_hcd.c ****       case HAL_HCD_MSPDEINIT_CB_ID :
 768:Drivers/STM32L4xx_HAL_Driver/Src/stm32l4xx_hal_hcd.c ****         hhcd->MspDeInitCallback = pCallback;
 769:Drivers/STM32L4xx_HAL_Driver/Src/stm32l4xx_hal_hcd.c ****         break;
 770:Drivers/STM32L4xx_HAL_Driver/Src/stm32l4xx_hal_hcd.c **** 
 771:Drivers/STM32L4xx_HAL_Driver/Src/stm32l4xx_hal_hcd.c ****       default :
 772:Drivers/STM32L4xx_HAL_Driver/Src/stm32l4xx_hal_hcd.c ****         /* Update the error code */
 773:Drivers/STM32L4xx_HAL_Driver/Src/stm32l4xx_hal_hcd.c ****         hhcd->ErrorCode |= HAL_HCD_ERROR_INVALID_CALLBACK;
ARM GAS  /tmp/cckZR06T.s 			page 15


 774:Drivers/STM32L4xx_HAL_Driver/Src/stm32l4xx_hal_hcd.c ****         /* Return error status */
 775:Drivers/STM32L4xx_HAL_Driver/Src/stm32l4xx_hal_hcd.c ****         status =  HAL_ERROR;
 776:Drivers/STM32L4xx_HAL_Driver/Src/stm32l4xx_hal_hcd.c ****         break;
 777:Drivers/STM32L4xx_HAL_Driver/Src/stm32l4xx_hal_hcd.c ****     }
 778:Drivers/STM32L4xx_HAL_Driver/Src/stm32l4xx_hal_hcd.c ****   }
 779:Drivers/STM32L4xx_HAL_Driver/Src/stm32l4xx_hal_hcd.c ****   else if (hhcd->State == HAL_HCD_STATE_RESET)
 780:Drivers/STM32L4xx_HAL_Driver/Src/stm32l4xx_hal_hcd.c ****   {
 781:Drivers/STM32L4xx_HAL_Driver/Src/stm32l4xx_hal_hcd.c ****     switch (CallbackID)
 782:Drivers/STM32L4xx_HAL_Driver/Src/stm32l4xx_hal_hcd.c ****     {
 783:Drivers/STM32L4xx_HAL_Driver/Src/stm32l4xx_hal_hcd.c ****       case HAL_HCD_MSPINIT_CB_ID :
 784:Drivers/STM32L4xx_HAL_Driver/Src/stm32l4xx_hal_hcd.c ****         hhcd->MspInitCallback = pCallback;
 785:Drivers/STM32L4xx_HAL_Driver/Src/stm32l4xx_hal_hcd.c ****         break;
 786:Drivers/STM32L4xx_HAL_Driver/Src/stm32l4xx_hal_hcd.c **** 
 787:Drivers/STM32L4xx_HAL_Driver/Src/stm32l4xx_hal_hcd.c ****       case HAL_HCD_MSPDEINIT_CB_ID :
 788:Drivers/STM32L4xx_HAL_Driver/Src/stm32l4xx_hal_hcd.c ****         hhcd->MspDeInitCallback = pCallback;
 789:Drivers/STM32L4xx_HAL_Driver/Src/stm32l4xx_hal_hcd.c ****         break;
 790:Drivers/STM32L4xx_HAL_Driver/Src/stm32l4xx_hal_hcd.c **** 
 791:Drivers/STM32L4xx_HAL_Driver/Src/stm32l4xx_hal_hcd.c ****       default :
 792:Drivers/STM32L4xx_HAL_Driver/Src/stm32l4xx_hal_hcd.c ****         /* Update the error code */
 793:Drivers/STM32L4xx_HAL_Driver/Src/stm32l4xx_hal_hcd.c ****         hhcd->ErrorCode |= HAL_HCD_ERROR_INVALID_CALLBACK;
 794:Drivers/STM32L4xx_HAL_Driver/Src/stm32l4xx_hal_hcd.c ****         /* Return error status */
 795:Drivers/STM32L4xx_HAL_Driver/Src/stm32l4xx_hal_hcd.c ****         status =  HAL_ERROR;
 796:Drivers/STM32L4xx_HAL_Driver/Src/stm32l4xx_hal_hcd.c ****         break;
 797:Drivers/STM32L4xx_HAL_Driver/Src/stm32l4xx_hal_hcd.c ****     }
 798:Drivers/STM32L4xx_HAL_Driver/Src/stm32l4xx_hal_hcd.c ****   }
 799:Drivers/STM32L4xx_HAL_Driver/Src/stm32l4xx_hal_hcd.c ****   else
 800:Drivers/STM32L4xx_HAL_Driver/Src/stm32l4xx_hal_hcd.c ****   {
 801:Drivers/STM32L4xx_HAL_Driver/Src/stm32l4xx_hal_hcd.c ****     /* Update the error code */
 802:Drivers/STM32L4xx_HAL_Driver/Src/stm32l4xx_hal_hcd.c ****     hhcd->ErrorCode |= HAL_HCD_ERROR_INVALID_CALLBACK;
 803:Drivers/STM32L4xx_HAL_Driver/Src/stm32l4xx_hal_hcd.c ****     /* Return error status */
 804:Drivers/STM32L4xx_HAL_Driver/Src/stm32l4xx_hal_hcd.c ****     status =  HAL_ERROR;
 805:Drivers/STM32L4xx_HAL_Driver/Src/stm32l4xx_hal_hcd.c ****   }
 806:Drivers/STM32L4xx_HAL_Driver/Src/stm32l4xx_hal_hcd.c **** 
 807:Drivers/STM32L4xx_HAL_Driver/Src/stm32l4xx_hal_hcd.c ****   /* Release Lock */
 808:Drivers/STM32L4xx_HAL_Driver/Src/stm32l4xx_hal_hcd.c ****   __HAL_UNLOCK(hhcd);
 809:Drivers/STM32L4xx_HAL_Driver/Src/stm32l4xx_hal_hcd.c ****   return status;
 810:Drivers/STM32L4xx_HAL_Driver/Src/stm32l4xx_hal_hcd.c **** }
 811:Drivers/STM32L4xx_HAL_Driver/Src/stm32l4xx_hal_hcd.c **** 
 812:Drivers/STM32L4xx_HAL_Driver/Src/stm32l4xx_hal_hcd.c **** /**
 813:Drivers/STM32L4xx_HAL_Driver/Src/stm32l4xx_hal_hcd.c ****   * @brief  Unregister an USB HCD Callback
 814:Drivers/STM32L4xx_HAL_Driver/Src/stm32l4xx_hal_hcd.c ****   *         USB HCD callabck is redirected to the weak predefined callback
 815:Drivers/STM32L4xx_HAL_Driver/Src/stm32l4xx_hal_hcd.c ****   * @param  hhcd USB HCD handle
 816:Drivers/STM32L4xx_HAL_Driver/Src/stm32l4xx_hal_hcd.c ****   * @param  CallbackID ID of the callback to be unregistered
 817:Drivers/STM32L4xx_HAL_Driver/Src/stm32l4xx_hal_hcd.c ****   *         This parameter can be one of the following values:
 818:Drivers/STM32L4xx_HAL_Driver/Src/stm32l4xx_hal_hcd.c ****   *          @arg @ref HAL_HCD_SOF_CB_ID USB HCD SOF callback ID
 819:Drivers/STM32L4xx_HAL_Driver/Src/stm32l4xx_hal_hcd.c ****   *          @arg @ref HAL_HCD_CONNECT_CB_ID USB HCD Connect callback ID
 820:Drivers/STM32L4xx_HAL_Driver/Src/stm32l4xx_hal_hcd.c ****   *          @arg @ref HAL_HCD_DISCONNECT_CB_ID OTG HCD Disconnect callback ID
 821:Drivers/STM32L4xx_HAL_Driver/Src/stm32l4xx_hal_hcd.c ****   *          @arg @ref HAL_HCD_PORT_ENABLED_CB_ID USB HCD Port Enabled callback ID
 822:Drivers/STM32L4xx_HAL_Driver/Src/stm32l4xx_hal_hcd.c ****   *          @arg @ref HAL_HCD_PORT_DISABLED_CB_ID USB HCD Port Disabled callback ID
 823:Drivers/STM32L4xx_HAL_Driver/Src/stm32l4xx_hal_hcd.c ****   *          @arg @ref HAL_HCD_MSPINIT_CB_ID MspDeInit callback ID
 824:Drivers/STM32L4xx_HAL_Driver/Src/stm32l4xx_hal_hcd.c ****   *          @arg @ref HAL_HCD_MSPDEINIT_CB_ID MspDeInit callback ID
 825:Drivers/STM32L4xx_HAL_Driver/Src/stm32l4xx_hal_hcd.c ****   * @retval HAL status
 826:Drivers/STM32L4xx_HAL_Driver/Src/stm32l4xx_hal_hcd.c ****   */
 827:Drivers/STM32L4xx_HAL_Driver/Src/stm32l4xx_hal_hcd.c **** HAL_StatusTypeDef HAL_HCD_UnRegisterCallback(HCD_HandleTypeDef *hhcd, HAL_HCD_CallbackIDTypeDef Cal
 828:Drivers/STM32L4xx_HAL_Driver/Src/stm32l4xx_hal_hcd.c **** {
 829:Drivers/STM32L4xx_HAL_Driver/Src/stm32l4xx_hal_hcd.c ****   HAL_StatusTypeDef status = HAL_OK;
 830:Drivers/STM32L4xx_HAL_Driver/Src/stm32l4xx_hal_hcd.c **** 
ARM GAS  /tmp/cckZR06T.s 			page 16


 831:Drivers/STM32L4xx_HAL_Driver/Src/stm32l4xx_hal_hcd.c ****   /* Process locked */
 832:Drivers/STM32L4xx_HAL_Driver/Src/stm32l4xx_hal_hcd.c ****   __HAL_LOCK(hhcd);
 833:Drivers/STM32L4xx_HAL_Driver/Src/stm32l4xx_hal_hcd.c **** 
 834:Drivers/STM32L4xx_HAL_Driver/Src/stm32l4xx_hal_hcd.c ****   /* Setup Legacy weak Callbacks  */
 835:Drivers/STM32L4xx_HAL_Driver/Src/stm32l4xx_hal_hcd.c ****   if (hhcd->State == HAL_HCD_STATE_READY)
 836:Drivers/STM32L4xx_HAL_Driver/Src/stm32l4xx_hal_hcd.c ****   {
 837:Drivers/STM32L4xx_HAL_Driver/Src/stm32l4xx_hal_hcd.c ****     switch (CallbackID)
 838:Drivers/STM32L4xx_HAL_Driver/Src/stm32l4xx_hal_hcd.c ****     {
 839:Drivers/STM32L4xx_HAL_Driver/Src/stm32l4xx_hal_hcd.c ****       case HAL_HCD_SOF_CB_ID :
 840:Drivers/STM32L4xx_HAL_Driver/Src/stm32l4xx_hal_hcd.c ****         hhcd->SOFCallback = HAL_HCD_SOF_Callback;
 841:Drivers/STM32L4xx_HAL_Driver/Src/stm32l4xx_hal_hcd.c ****         break;
 842:Drivers/STM32L4xx_HAL_Driver/Src/stm32l4xx_hal_hcd.c **** 
 843:Drivers/STM32L4xx_HAL_Driver/Src/stm32l4xx_hal_hcd.c ****       case HAL_HCD_CONNECT_CB_ID :
 844:Drivers/STM32L4xx_HAL_Driver/Src/stm32l4xx_hal_hcd.c ****         hhcd->ConnectCallback = HAL_HCD_Connect_Callback;
 845:Drivers/STM32L4xx_HAL_Driver/Src/stm32l4xx_hal_hcd.c ****         break;
 846:Drivers/STM32L4xx_HAL_Driver/Src/stm32l4xx_hal_hcd.c **** 
 847:Drivers/STM32L4xx_HAL_Driver/Src/stm32l4xx_hal_hcd.c ****       case HAL_HCD_DISCONNECT_CB_ID :
 848:Drivers/STM32L4xx_HAL_Driver/Src/stm32l4xx_hal_hcd.c ****         hhcd->DisconnectCallback = HAL_HCD_Disconnect_Callback;
 849:Drivers/STM32L4xx_HAL_Driver/Src/stm32l4xx_hal_hcd.c ****         break;
 850:Drivers/STM32L4xx_HAL_Driver/Src/stm32l4xx_hal_hcd.c **** 
 851:Drivers/STM32L4xx_HAL_Driver/Src/stm32l4xx_hal_hcd.c ****       case HAL_HCD_PORT_ENABLED_CB_ID :
 852:Drivers/STM32L4xx_HAL_Driver/Src/stm32l4xx_hal_hcd.c ****         hhcd->PortEnabledCallback = HAL_HCD_PortEnabled_Callback;
 853:Drivers/STM32L4xx_HAL_Driver/Src/stm32l4xx_hal_hcd.c ****         break;
 854:Drivers/STM32L4xx_HAL_Driver/Src/stm32l4xx_hal_hcd.c **** 
 855:Drivers/STM32L4xx_HAL_Driver/Src/stm32l4xx_hal_hcd.c ****       case HAL_HCD_PORT_DISABLED_CB_ID :
 856:Drivers/STM32L4xx_HAL_Driver/Src/stm32l4xx_hal_hcd.c ****         hhcd->PortDisabledCallback = HAL_HCD_PortDisabled_Callback;
 857:Drivers/STM32L4xx_HAL_Driver/Src/stm32l4xx_hal_hcd.c ****         break;
 858:Drivers/STM32L4xx_HAL_Driver/Src/stm32l4xx_hal_hcd.c **** 
 859:Drivers/STM32L4xx_HAL_Driver/Src/stm32l4xx_hal_hcd.c ****       case HAL_HCD_MSPINIT_CB_ID :
 860:Drivers/STM32L4xx_HAL_Driver/Src/stm32l4xx_hal_hcd.c ****         hhcd->MspInitCallback = HAL_HCD_MspInit;
 861:Drivers/STM32L4xx_HAL_Driver/Src/stm32l4xx_hal_hcd.c ****         break;
 862:Drivers/STM32L4xx_HAL_Driver/Src/stm32l4xx_hal_hcd.c **** 
 863:Drivers/STM32L4xx_HAL_Driver/Src/stm32l4xx_hal_hcd.c ****       case HAL_HCD_MSPDEINIT_CB_ID :
 864:Drivers/STM32L4xx_HAL_Driver/Src/stm32l4xx_hal_hcd.c ****         hhcd->MspDeInitCallback = HAL_HCD_MspDeInit;
 865:Drivers/STM32L4xx_HAL_Driver/Src/stm32l4xx_hal_hcd.c ****         break;
 866:Drivers/STM32L4xx_HAL_Driver/Src/stm32l4xx_hal_hcd.c **** 
 867:Drivers/STM32L4xx_HAL_Driver/Src/stm32l4xx_hal_hcd.c ****       default :
 868:Drivers/STM32L4xx_HAL_Driver/Src/stm32l4xx_hal_hcd.c ****         /* Update the error code */
 869:Drivers/STM32L4xx_HAL_Driver/Src/stm32l4xx_hal_hcd.c ****         hhcd->ErrorCode |= HAL_HCD_ERROR_INVALID_CALLBACK;
 870:Drivers/STM32L4xx_HAL_Driver/Src/stm32l4xx_hal_hcd.c **** 
 871:Drivers/STM32L4xx_HAL_Driver/Src/stm32l4xx_hal_hcd.c ****         /* Return error status */
 872:Drivers/STM32L4xx_HAL_Driver/Src/stm32l4xx_hal_hcd.c ****         status =  HAL_ERROR;
 873:Drivers/STM32L4xx_HAL_Driver/Src/stm32l4xx_hal_hcd.c ****         break;
 874:Drivers/STM32L4xx_HAL_Driver/Src/stm32l4xx_hal_hcd.c ****     }
 875:Drivers/STM32L4xx_HAL_Driver/Src/stm32l4xx_hal_hcd.c ****   }
 876:Drivers/STM32L4xx_HAL_Driver/Src/stm32l4xx_hal_hcd.c ****   else if (hhcd->State == HAL_HCD_STATE_RESET)
 877:Drivers/STM32L4xx_HAL_Driver/Src/stm32l4xx_hal_hcd.c ****   {
 878:Drivers/STM32L4xx_HAL_Driver/Src/stm32l4xx_hal_hcd.c ****     switch (CallbackID)
 879:Drivers/STM32L4xx_HAL_Driver/Src/stm32l4xx_hal_hcd.c ****     {
 880:Drivers/STM32L4xx_HAL_Driver/Src/stm32l4xx_hal_hcd.c ****       case HAL_HCD_MSPINIT_CB_ID :
 881:Drivers/STM32L4xx_HAL_Driver/Src/stm32l4xx_hal_hcd.c ****         hhcd->MspInitCallback = HAL_HCD_MspInit;
 882:Drivers/STM32L4xx_HAL_Driver/Src/stm32l4xx_hal_hcd.c ****         break;
 883:Drivers/STM32L4xx_HAL_Driver/Src/stm32l4xx_hal_hcd.c **** 
 884:Drivers/STM32L4xx_HAL_Driver/Src/stm32l4xx_hal_hcd.c ****       case HAL_HCD_MSPDEINIT_CB_ID :
 885:Drivers/STM32L4xx_HAL_Driver/Src/stm32l4xx_hal_hcd.c ****         hhcd->MspDeInitCallback = HAL_HCD_MspDeInit;
 886:Drivers/STM32L4xx_HAL_Driver/Src/stm32l4xx_hal_hcd.c ****         break;
 887:Drivers/STM32L4xx_HAL_Driver/Src/stm32l4xx_hal_hcd.c **** 
ARM GAS  /tmp/cckZR06T.s 			page 17


 888:Drivers/STM32L4xx_HAL_Driver/Src/stm32l4xx_hal_hcd.c ****       default :
 889:Drivers/STM32L4xx_HAL_Driver/Src/stm32l4xx_hal_hcd.c ****         /* Update the error code */
 890:Drivers/STM32L4xx_HAL_Driver/Src/stm32l4xx_hal_hcd.c ****         hhcd->ErrorCode |= HAL_HCD_ERROR_INVALID_CALLBACK;
 891:Drivers/STM32L4xx_HAL_Driver/Src/stm32l4xx_hal_hcd.c **** 
 892:Drivers/STM32L4xx_HAL_Driver/Src/stm32l4xx_hal_hcd.c ****         /* Return error status */
 893:Drivers/STM32L4xx_HAL_Driver/Src/stm32l4xx_hal_hcd.c ****         status =  HAL_ERROR;
 894:Drivers/STM32L4xx_HAL_Driver/Src/stm32l4xx_hal_hcd.c ****         break;
 895:Drivers/STM32L4xx_HAL_Driver/Src/stm32l4xx_hal_hcd.c ****     }
 896:Drivers/STM32L4xx_HAL_Driver/Src/stm32l4xx_hal_hcd.c ****   }
 897:Drivers/STM32L4xx_HAL_Driver/Src/stm32l4xx_hal_hcd.c ****   else
 898:Drivers/STM32L4xx_HAL_Driver/Src/stm32l4xx_hal_hcd.c ****   {
 899:Drivers/STM32L4xx_HAL_Driver/Src/stm32l4xx_hal_hcd.c ****     /* Update the error code */
 900:Drivers/STM32L4xx_HAL_Driver/Src/stm32l4xx_hal_hcd.c ****     hhcd->ErrorCode |= HAL_HCD_ERROR_INVALID_CALLBACK;
 901:Drivers/STM32L4xx_HAL_Driver/Src/stm32l4xx_hal_hcd.c **** 
 902:Drivers/STM32L4xx_HAL_Driver/Src/stm32l4xx_hal_hcd.c ****     /* Return error status */
 903:Drivers/STM32L4xx_HAL_Driver/Src/stm32l4xx_hal_hcd.c ****     status =  HAL_ERROR;
 904:Drivers/STM32L4xx_HAL_Driver/Src/stm32l4xx_hal_hcd.c ****   }
 905:Drivers/STM32L4xx_HAL_Driver/Src/stm32l4xx_hal_hcd.c **** 
 906:Drivers/STM32L4xx_HAL_Driver/Src/stm32l4xx_hal_hcd.c ****   /* Release Lock */
 907:Drivers/STM32L4xx_HAL_Driver/Src/stm32l4xx_hal_hcd.c ****   __HAL_UNLOCK(hhcd);
 908:Drivers/STM32L4xx_HAL_Driver/Src/stm32l4xx_hal_hcd.c ****   return status;
 909:Drivers/STM32L4xx_HAL_Driver/Src/stm32l4xx_hal_hcd.c **** }
 910:Drivers/STM32L4xx_HAL_Driver/Src/stm32l4xx_hal_hcd.c **** 
 911:Drivers/STM32L4xx_HAL_Driver/Src/stm32l4xx_hal_hcd.c **** /**
 912:Drivers/STM32L4xx_HAL_Driver/Src/stm32l4xx_hal_hcd.c ****   * @brief  Register USB HCD Host Channel Notify URB Change Callback
 913:Drivers/STM32L4xx_HAL_Driver/Src/stm32l4xx_hal_hcd.c ****   *         To be used instead of the weak HAL_HCD_HC_NotifyURBChange_Callback() predefined callbac
 914:Drivers/STM32L4xx_HAL_Driver/Src/stm32l4xx_hal_hcd.c ****   * @param  hhcd HCD handle
 915:Drivers/STM32L4xx_HAL_Driver/Src/stm32l4xx_hal_hcd.c ****   * @param  pCallback pointer to the USB HCD Host Channel Notify URB Change Callback function
 916:Drivers/STM32L4xx_HAL_Driver/Src/stm32l4xx_hal_hcd.c ****   * @retval HAL status
 917:Drivers/STM32L4xx_HAL_Driver/Src/stm32l4xx_hal_hcd.c ****   */
 918:Drivers/STM32L4xx_HAL_Driver/Src/stm32l4xx_hal_hcd.c **** HAL_StatusTypeDef HAL_HCD_RegisterHC_NotifyURBChangeCallback(HCD_HandleTypeDef *hhcd, pHCD_HC_Notif
 919:Drivers/STM32L4xx_HAL_Driver/Src/stm32l4xx_hal_hcd.c **** {
 920:Drivers/STM32L4xx_HAL_Driver/Src/stm32l4xx_hal_hcd.c ****   HAL_StatusTypeDef status = HAL_OK;
 921:Drivers/STM32L4xx_HAL_Driver/Src/stm32l4xx_hal_hcd.c **** 
 922:Drivers/STM32L4xx_HAL_Driver/Src/stm32l4xx_hal_hcd.c ****   if (pCallback == NULL)
 923:Drivers/STM32L4xx_HAL_Driver/Src/stm32l4xx_hal_hcd.c ****   {
 924:Drivers/STM32L4xx_HAL_Driver/Src/stm32l4xx_hal_hcd.c ****     /* Update the error code */
 925:Drivers/STM32L4xx_HAL_Driver/Src/stm32l4xx_hal_hcd.c ****     hhcd->ErrorCode |= HAL_HCD_ERROR_INVALID_CALLBACK;
 926:Drivers/STM32L4xx_HAL_Driver/Src/stm32l4xx_hal_hcd.c **** 
 927:Drivers/STM32L4xx_HAL_Driver/Src/stm32l4xx_hal_hcd.c ****     return HAL_ERROR;
 928:Drivers/STM32L4xx_HAL_Driver/Src/stm32l4xx_hal_hcd.c ****   }
 929:Drivers/STM32L4xx_HAL_Driver/Src/stm32l4xx_hal_hcd.c **** 
 930:Drivers/STM32L4xx_HAL_Driver/Src/stm32l4xx_hal_hcd.c ****   /* Process locked */
 931:Drivers/STM32L4xx_HAL_Driver/Src/stm32l4xx_hal_hcd.c ****   __HAL_LOCK(hhcd);
 932:Drivers/STM32L4xx_HAL_Driver/Src/stm32l4xx_hal_hcd.c **** 
 933:Drivers/STM32L4xx_HAL_Driver/Src/stm32l4xx_hal_hcd.c ****   if (hhcd->State == HAL_HCD_STATE_READY)
 934:Drivers/STM32L4xx_HAL_Driver/Src/stm32l4xx_hal_hcd.c ****   {
 935:Drivers/STM32L4xx_HAL_Driver/Src/stm32l4xx_hal_hcd.c ****     hhcd->HC_NotifyURBChangeCallback = pCallback;
 936:Drivers/STM32L4xx_HAL_Driver/Src/stm32l4xx_hal_hcd.c ****   }
 937:Drivers/STM32L4xx_HAL_Driver/Src/stm32l4xx_hal_hcd.c ****   else
 938:Drivers/STM32L4xx_HAL_Driver/Src/stm32l4xx_hal_hcd.c ****   {
 939:Drivers/STM32L4xx_HAL_Driver/Src/stm32l4xx_hal_hcd.c ****     /* Update the error code */
 940:Drivers/STM32L4xx_HAL_Driver/Src/stm32l4xx_hal_hcd.c ****     hhcd->ErrorCode |= HAL_HCD_ERROR_INVALID_CALLBACK;
 941:Drivers/STM32L4xx_HAL_Driver/Src/stm32l4xx_hal_hcd.c **** 
 942:Drivers/STM32L4xx_HAL_Driver/Src/stm32l4xx_hal_hcd.c ****     /* Return error status */
 943:Drivers/STM32L4xx_HAL_Driver/Src/stm32l4xx_hal_hcd.c ****     status =  HAL_ERROR;
 944:Drivers/STM32L4xx_HAL_Driver/Src/stm32l4xx_hal_hcd.c ****   }
ARM GAS  /tmp/cckZR06T.s 			page 18


 945:Drivers/STM32L4xx_HAL_Driver/Src/stm32l4xx_hal_hcd.c **** 
 946:Drivers/STM32L4xx_HAL_Driver/Src/stm32l4xx_hal_hcd.c ****   /* Release Lock */
 947:Drivers/STM32L4xx_HAL_Driver/Src/stm32l4xx_hal_hcd.c ****   __HAL_UNLOCK(hhcd);
 948:Drivers/STM32L4xx_HAL_Driver/Src/stm32l4xx_hal_hcd.c **** 
 949:Drivers/STM32L4xx_HAL_Driver/Src/stm32l4xx_hal_hcd.c ****   return status;
 950:Drivers/STM32L4xx_HAL_Driver/Src/stm32l4xx_hal_hcd.c **** }
 951:Drivers/STM32L4xx_HAL_Driver/Src/stm32l4xx_hal_hcd.c **** 
 952:Drivers/STM32L4xx_HAL_Driver/Src/stm32l4xx_hal_hcd.c **** /**
 953:Drivers/STM32L4xx_HAL_Driver/Src/stm32l4xx_hal_hcd.c ****   * @brief  UnRegister the USB HCD Host Channel Notify URB Change Callback
 954:Drivers/STM32L4xx_HAL_Driver/Src/stm32l4xx_hal_hcd.c ****   *         USB HCD Host Channel Notify URB Change Callback is redirected to the weak HAL_HCD_HC_No
 955:Drivers/STM32L4xx_HAL_Driver/Src/stm32l4xx_hal_hcd.c ****   * @param  hhcd HCD handle
 956:Drivers/STM32L4xx_HAL_Driver/Src/stm32l4xx_hal_hcd.c ****   * @retval HAL status
 957:Drivers/STM32L4xx_HAL_Driver/Src/stm32l4xx_hal_hcd.c ****   */
 958:Drivers/STM32L4xx_HAL_Driver/Src/stm32l4xx_hal_hcd.c **** HAL_StatusTypeDef HAL_HCD_UnRegisterHC_NotifyURBChangeCallback(HCD_HandleTypeDef *hhcd)
 959:Drivers/STM32L4xx_HAL_Driver/Src/stm32l4xx_hal_hcd.c **** {
 960:Drivers/STM32L4xx_HAL_Driver/Src/stm32l4xx_hal_hcd.c ****   HAL_StatusTypeDef status = HAL_OK;
 961:Drivers/STM32L4xx_HAL_Driver/Src/stm32l4xx_hal_hcd.c **** 
 962:Drivers/STM32L4xx_HAL_Driver/Src/stm32l4xx_hal_hcd.c ****   /* Process locked */
 963:Drivers/STM32L4xx_HAL_Driver/Src/stm32l4xx_hal_hcd.c ****   __HAL_LOCK(hhcd);
 964:Drivers/STM32L4xx_HAL_Driver/Src/stm32l4xx_hal_hcd.c **** 
 965:Drivers/STM32L4xx_HAL_Driver/Src/stm32l4xx_hal_hcd.c ****   if (hhcd->State == HAL_HCD_STATE_READY)
 966:Drivers/STM32L4xx_HAL_Driver/Src/stm32l4xx_hal_hcd.c ****   {
 967:Drivers/STM32L4xx_HAL_Driver/Src/stm32l4xx_hal_hcd.c ****     hhcd->HC_NotifyURBChangeCallback = HAL_HCD_HC_NotifyURBChange_Callback; /* Legacy weak DataOutS
 968:Drivers/STM32L4xx_HAL_Driver/Src/stm32l4xx_hal_hcd.c ****   }
 969:Drivers/STM32L4xx_HAL_Driver/Src/stm32l4xx_hal_hcd.c ****   else
 970:Drivers/STM32L4xx_HAL_Driver/Src/stm32l4xx_hal_hcd.c ****   {
 971:Drivers/STM32L4xx_HAL_Driver/Src/stm32l4xx_hal_hcd.c ****     /* Update the error code */
 972:Drivers/STM32L4xx_HAL_Driver/Src/stm32l4xx_hal_hcd.c ****     hhcd->ErrorCode |= HAL_HCD_ERROR_INVALID_CALLBACK;
 973:Drivers/STM32L4xx_HAL_Driver/Src/stm32l4xx_hal_hcd.c **** 
 974:Drivers/STM32L4xx_HAL_Driver/Src/stm32l4xx_hal_hcd.c ****     /* Return error status */
 975:Drivers/STM32L4xx_HAL_Driver/Src/stm32l4xx_hal_hcd.c ****     status =  HAL_ERROR;
 976:Drivers/STM32L4xx_HAL_Driver/Src/stm32l4xx_hal_hcd.c ****   }
 977:Drivers/STM32L4xx_HAL_Driver/Src/stm32l4xx_hal_hcd.c **** 
 978:Drivers/STM32L4xx_HAL_Driver/Src/stm32l4xx_hal_hcd.c ****   /* Release Lock */
 979:Drivers/STM32L4xx_HAL_Driver/Src/stm32l4xx_hal_hcd.c ****   __HAL_UNLOCK(hhcd);
 980:Drivers/STM32L4xx_HAL_Driver/Src/stm32l4xx_hal_hcd.c **** 
 981:Drivers/STM32L4xx_HAL_Driver/Src/stm32l4xx_hal_hcd.c ****   return status;
 982:Drivers/STM32L4xx_HAL_Driver/Src/stm32l4xx_hal_hcd.c **** }
 983:Drivers/STM32L4xx_HAL_Driver/Src/stm32l4xx_hal_hcd.c **** #endif /* USE_HAL_HCD_REGISTER_CALLBACKS */
 984:Drivers/STM32L4xx_HAL_Driver/Src/stm32l4xx_hal_hcd.c **** 
 985:Drivers/STM32L4xx_HAL_Driver/Src/stm32l4xx_hal_hcd.c **** /**
 986:Drivers/STM32L4xx_HAL_Driver/Src/stm32l4xx_hal_hcd.c ****   * @}
 987:Drivers/STM32L4xx_HAL_Driver/Src/stm32l4xx_hal_hcd.c ****   */
 988:Drivers/STM32L4xx_HAL_Driver/Src/stm32l4xx_hal_hcd.c **** 
 989:Drivers/STM32L4xx_HAL_Driver/Src/stm32l4xx_hal_hcd.c **** /** @defgroup HCD_Exported_Functions_Group3 Peripheral Control functions
 990:Drivers/STM32L4xx_HAL_Driver/Src/stm32l4xx_hal_hcd.c ****  *  @brief   Management functions
 991:Drivers/STM32L4xx_HAL_Driver/Src/stm32l4xx_hal_hcd.c ****  *
 992:Drivers/STM32L4xx_HAL_Driver/Src/stm32l4xx_hal_hcd.c **** @verbatim
 993:Drivers/STM32L4xx_HAL_Driver/Src/stm32l4xx_hal_hcd.c ****  ===============================================================================
 994:Drivers/STM32L4xx_HAL_Driver/Src/stm32l4xx_hal_hcd.c ****                       ##### Peripheral Control functions #####
 995:Drivers/STM32L4xx_HAL_Driver/Src/stm32l4xx_hal_hcd.c ****  ===============================================================================
 996:Drivers/STM32L4xx_HAL_Driver/Src/stm32l4xx_hal_hcd.c ****     [..]
 997:Drivers/STM32L4xx_HAL_Driver/Src/stm32l4xx_hal_hcd.c ****     This subsection provides a set of functions allowing to control the HCD data
 998:Drivers/STM32L4xx_HAL_Driver/Src/stm32l4xx_hal_hcd.c ****     transfers.
 999:Drivers/STM32L4xx_HAL_Driver/Src/stm32l4xx_hal_hcd.c **** 
1000:Drivers/STM32L4xx_HAL_Driver/Src/stm32l4xx_hal_hcd.c **** @endverbatim
1001:Drivers/STM32L4xx_HAL_Driver/Src/stm32l4xx_hal_hcd.c ****   * @{
ARM GAS  /tmp/cckZR06T.s 			page 19


1002:Drivers/STM32L4xx_HAL_Driver/Src/stm32l4xx_hal_hcd.c ****   */
1003:Drivers/STM32L4xx_HAL_Driver/Src/stm32l4xx_hal_hcd.c **** 
1004:Drivers/STM32L4xx_HAL_Driver/Src/stm32l4xx_hal_hcd.c **** /**
1005:Drivers/STM32L4xx_HAL_Driver/Src/stm32l4xx_hal_hcd.c ****   * @brief  Start the host driver.
1006:Drivers/STM32L4xx_HAL_Driver/Src/stm32l4xx_hal_hcd.c ****   * @param  hhcd HCD handle
1007:Drivers/STM32L4xx_HAL_Driver/Src/stm32l4xx_hal_hcd.c ****   * @retval HAL status
1008:Drivers/STM32L4xx_HAL_Driver/Src/stm32l4xx_hal_hcd.c ****   */
1009:Drivers/STM32L4xx_HAL_Driver/Src/stm32l4xx_hal_hcd.c **** HAL_StatusTypeDef HAL_HCD_Start(HCD_HandleTypeDef *hhcd)
1010:Drivers/STM32L4xx_HAL_Driver/Src/stm32l4xx_hal_hcd.c **** {
1011:Drivers/STM32L4xx_HAL_Driver/Src/stm32l4xx_hal_hcd.c ****   __HAL_LOCK(hhcd);
1012:Drivers/STM32L4xx_HAL_Driver/Src/stm32l4xx_hal_hcd.c ****   __HAL_HCD_ENABLE(hhcd);
1013:Drivers/STM32L4xx_HAL_Driver/Src/stm32l4xx_hal_hcd.c ****   (void)USB_DriveVbus(hhcd->Instance, 1U);
1014:Drivers/STM32L4xx_HAL_Driver/Src/stm32l4xx_hal_hcd.c ****   __HAL_UNLOCK(hhcd);
1015:Drivers/STM32L4xx_HAL_Driver/Src/stm32l4xx_hal_hcd.c ****   return HAL_OK;
1016:Drivers/STM32L4xx_HAL_Driver/Src/stm32l4xx_hal_hcd.c **** }
1017:Drivers/STM32L4xx_HAL_Driver/Src/stm32l4xx_hal_hcd.c **** 
1018:Drivers/STM32L4xx_HAL_Driver/Src/stm32l4xx_hal_hcd.c **** /**
1019:Drivers/STM32L4xx_HAL_Driver/Src/stm32l4xx_hal_hcd.c ****   * @brief  Stop the host driver.
1020:Drivers/STM32L4xx_HAL_Driver/Src/stm32l4xx_hal_hcd.c ****   * @param  hhcd HCD handle
1021:Drivers/STM32L4xx_HAL_Driver/Src/stm32l4xx_hal_hcd.c ****   * @retval HAL status
1022:Drivers/STM32L4xx_HAL_Driver/Src/stm32l4xx_hal_hcd.c ****   */
1023:Drivers/STM32L4xx_HAL_Driver/Src/stm32l4xx_hal_hcd.c **** 
1024:Drivers/STM32L4xx_HAL_Driver/Src/stm32l4xx_hal_hcd.c **** HAL_StatusTypeDef HAL_HCD_Stop(HCD_HandleTypeDef *hhcd)
1025:Drivers/STM32L4xx_HAL_Driver/Src/stm32l4xx_hal_hcd.c **** {
1026:Drivers/STM32L4xx_HAL_Driver/Src/stm32l4xx_hal_hcd.c ****   __HAL_LOCK(hhcd);
1027:Drivers/STM32L4xx_HAL_Driver/Src/stm32l4xx_hal_hcd.c ****   (void)USB_StopHost(hhcd->Instance);
1028:Drivers/STM32L4xx_HAL_Driver/Src/stm32l4xx_hal_hcd.c ****   __HAL_UNLOCK(hhcd);
1029:Drivers/STM32L4xx_HAL_Driver/Src/stm32l4xx_hal_hcd.c ****   return HAL_OK;
1030:Drivers/STM32L4xx_HAL_Driver/Src/stm32l4xx_hal_hcd.c **** }
1031:Drivers/STM32L4xx_HAL_Driver/Src/stm32l4xx_hal_hcd.c **** 
1032:Drivers/STM32L4xx_HAL_Driver/Src/stm32l4xx_hal_hcd.c **** /**
1033:Drivers/STM32L4xx_HAL_Driver/Src/stm32l4xx_hal_hcd.c ****   * @brief  Reset the host port.
1034:Drivers/STM32L4xx_HAL_Driver/Src/stm32l4xx_hal_hcd.c ****   * @param  hhcd HCD handle
1035:Drivers/STM32L4xx_HAL_Driver/Src/stm32l4xx_hal_hcd.c ****   * @retval HAL status
1036:Drivers/STM32L4xx_HAL_Driver/Src/stm32l4xx_hal_hcd.c ****   */
1037:Drivers/STM32L4xx_HAL_Driver/Src/stm32l4xx_hal_hcd.c **** HAL_StatusTypeDef HAL_HCD_ResetPort(HCD_HandleTypeDef *hhcd)
1038:Drivers/STM32L4xx_HAL_Driver/Src/stm32l4xx_hal_hcd.c **** {
1039:Drivers/STM32L4xx_HAL_Driver/Src/stm32l4xx_hal_hcd.c ****   return (USB_ResetPort(hhcd->Instance));
1040:Drivers/STM32L4xx_HAL_Driver/Src/stm32l4xx_hal_hcd.c **** }
1041:Drivers/STM32L4xx_HAL_Driver/Src/stm32l4xx_hal_hcd.c **** 
1042:Drivers/STM32L4xx_HAL_Driver/Src/stm32l4xx_hal_hcd.c **** /**
1043:Drivers/STM32L4xx_HAL_Driver/Src/stm32l4xx_hal_hcd.c ****   * @}
1044:Drivers/STM32L4xx_HAL_Driver/Src/stm32l4xx_hal_hcd.c ****   */
1045:Drivers/STM32L4xx_HAL_Driver/Src/stm32l4xx_hal_hcd.c **** 
1046:Drivers/STM32L4xx_HAL_Driver/Src/stm32l4xx_hal_hcd.c **** /** @defgroup HCD_Exported_Functions_Group4 Peripheral State functions
1047:Drivers/STM32L4xx_HAL_Driver/Src/stm32l4xx_hal_hcd.c ****  *  @brief   Peripheral State functions
1048:Drivers/STM32L4xx_HAL_Driver/Src/stm32l4xx_hal_hcd.c ****  *
1049:Drivers/STM32L4xx_HAL_Driver/Src/stm32l4xx_hal_hcd.c **** @verbatim
1050:Drivers/STM32L4xx_HAL_Driver/Src/stm32l4xx_hal_hcd.c ****  ===============================================================================
1051:Drivers/STM32L4xx_HAL_Driver/Src/stm32l4xx_hal_hcd.c ****                       ##### Peripheral State functions #####
1052:Drivers/STM32L4xx_HAL_Driver/Src/stm32l4xx_hal_hcd.c ****  ===============================================================================
1053:Drivers/STM32L4xx_HAL_Driver/Src/stm32l4xx_hal_hcd.c ****     [..]
1054:Drivers/STM32L4xx_HAL_Driver/Src/stm32l4xx_hal_hcd.c ****     This subsection permits to get in run-time the status of the peripheral
1055:Drivers/STM32L4xx_HAL_Driver/Src/stm32l4xx_hal_hcd.c ****     and the data flow.
1056:Drivers/STM32L4xx_HAL_Driver/Src/stm32l4xx_hal_hcd.c **** 
1057:Drivers/STM32L4xx_HAL_Driver/Src/stm32l4xx_hal_hcd.c **** @endverbatim
1058:Drivers/STM32L4xx_HAL_Driver/Src/stm32l4xx_hal_hcd.c ****   * @{
ARM GAS  /tmp/cckZR06T.s 			page 20


1059:Drivers/STM32L4xx_HAL_Driver/Src/stm32l4xx_hal_hcd.c ****   */
1060:Drivers/STM32L4xx_HAL_Driver/Src/stm32l4xx_hal_hcd.c **** 
1061:Drivers/STM32L4xx_HAL_Driver/Src/stm32l4xx_hal_hcd.c **** /**
1062:Drivers/STM32L4xx_HAL_Driver/Src/stm32l4xx_hal_hcd.c ****   * @brief  Return the HCD handle state.
1063:Drivers/STM32L4xx_HAL_Driver/Src/stm32l4xx_hal_hcd.c ****   * @param  hhcd HCD handle
1064:Drivers/STM32L4xx_HAL_Driver/Src/stm32l4xx_hal_hcd.c ****   * @retval HAL state
1065:Drivers/STM32L4xx_HAL_Driver/Src/stm32l4xx_hal_hcd.c ****   */
1066:Drivers/STM32L4xx_HAL_Driver/Src/stm32l4xx_hal_hcd.c **** HCD_StateTypeDef HAL_HCD_GetState(HCD_HandleTypeDef *hhcd)
1067:Drivers/STM32L4xx_HAL_Driver/Src/stm32l4xx_hal_hcd.c **** {
1068:Drivers/STM32L4xx_HAL_Driver/Src/stm32l4xx_hal_hcd.c ****   return hhcd->State;
1069:Drivers/STM32L4xx_HAL_Driver/Src/stm32l4xx_hal_hcd.c **** }
1070:Drivers/STM32L4xx_HAL_Driver/Src/stm32l4xx_hal_hcd.c **** 
1071:Drivers/STM32L4xx_HAL_Driver/Src/stm32l4xx_hal_hcd.c **** /**
1072:Drivers/STM32L4xx_HAL_Driver/Src/stm32l4xx_hal_hcd.c ****   * @brief  Return  URB state for a channel.
1073:Drivers/STM32L4xx_HAL_Driver/Src/stm32l4xx_hal_hcd.c ****   * @param  hhcd HCD handle
1074:Drivers/STM32L4xx_HAL_Driver/Src/stm32l4xx_hal_hcd.c ****   * @param  chnum Channel number.
1075:Drivers/STM32L4xx_HAL_Driver/Src/stm32l4xx_hal_hcd.c ****   *         This parameter can be a value from 1 to 15
1076:Drivers/STM32L4xx_HAL_Driver/Src/stm32l4xx_hal_hcd.c ****   * @retval URB state.
1077:Drivers/STM32L4xx_HAL_Driver/Src/stm32l4xx_hal_hcd.c ****   *          This parameter can be one of these values:
1078:Drivers/STM32L4xx_HAL_Driver/Src/stm32l4xx_hal_hcd.c ****   *            URB_IDLE/
1079:Drivers/STM32L4xx_HAL_Driver/Src/stm32l4xx_hal_hcd.c ****   *            URB_DONE/
1080:Drivers/STM32L4xx_HAL_Driver/Src/stm32l4xx_hal_hcd.c ****   *            URB_NOTREADY/
1081:Drivers/STM32L4xx_HAL_Driver/Src/stm32l4xx_hal_hcd.c ****   *            URB_NYET/
1082:Drivers/STM32L4xx_HAL_Driver/Src/stm32l4xx_hal_hcd.c ****   *            URB_ERROR/
1083:Drivers/STM32L4xx_HAL_Driver/Src/stm32l4xx_hal_hcd.c ****   *            URB_STALL
1084:Drivers/STM32L4xx_HAL_Driver/Src/stm32l4xx_hal_hcd.c ****   */
1085:Drivers/STM32L4xx_HAL_Driver/Src/stm32l4xx_hal_hcd.c **** HCD_URBStateTypeDef HAL_HCD_HC_GetURBState(HCD_HandleTypeDef *hhcd, uint8_t chnum)
1086:Drivers/STM32L4xx_HAL_Driver/Src/stm32l4xx_hal_hcd.c **** {
1087:Drivers/STM32L4xx_HAL_Driver/Src/stm32l4xx_hal_hcd.c ****   return hhcd->hc[chnum].urb_state;
1088:Drivers/STM32L4xx_HAL_Driver/Src/stm32l4xx_hal_hcd.c **** }
1089:Drivers/STM32L4xx_HAL_Driver/Src/stm32l4xx_hal_hcd.c **** 
1090:Drivers/STM32L4xx_HAL_Driver/Src/stm32l4xx_hal_hcd.c **** 
1091:Drivers/STM32L4xx_HAL_Driver/Src/stm32l4xx_hal_hcd.c **** /**
1092:Drivers/STM32L4xx_HAL_Driver/Src/stm32l4xx_hal_hcd.c ****   * @brief  Return the last host transfer size.
1093:Drivers/STM32L4xx_HAL_Driver/Src/stm32l4xx_hal_hcd.c ****   * @param  hhcd HCD handle
1094:Drivers/STM32L4xx_HAL_Driver/Src/stm32l4xx_hal_hcd.c ****   * @param  chnum Channel number.
1095:Drivers/STM32L4xx_HAL_Driver/Src/stm32l4xx_hal_hcd.c ****   *         This parameter can be a value from 1 to 15
1096:Drivers/STM32L4xx_HAL_Driver/Src/stm32l4xx_hal_hcd.c ****   * @retval last transfer size in byte
1097:Drivers/STM32L4xx_HAL_Driver/Src/stm32l4xx_hal_hcd.c ****   */
1098:Drivers/STM32L4xx_HAL_Driver/Src/stm32l4xx_hal_hcd.c **** uint32_t HAL_HCD_HC_GetXferCount(HCD_HandleTypeDef *hhcd, uint8_t chnum)
1099:Drivers/STM32L4xx_HAL_Driver/Src/stm32l4xx_hal_hcd.c **** {
1100:Drivers/STM32L4xx_HAL_Driver/Src/stm32l4xx_hal_hcd.c ****   return hhcd->hc[chnum].xfer_count;
1101:Drivers/STM32L4xx_HAL_Driver/Src/stm32l4xx_hal_hcd.c **** }
1102:Drivers/STM32L4xx_HAL_Driver/Src/stm32l4xx_hal_hcd.c **** 
1103:Drivers/STM32L4xx_HAL_Driver/Src/stm32l4xx_hal_hcd.c **** /**
1104:Drivers/STM32L4xx_HAL_Driver/Src/stm32l4xx_hal_hcd.c ****   * @brief  Return the Host Channel state.
1105:Drivers/STM32L4xx_HAL_Driver/Src/stm32l4xx_hal_hcd.c ****   * @param  hhcd HCD handle
1106:Drivers/STM32L4xx_HAL_Driver/Src/stm32l4xx_hal_hcd.c ****   * @param  chnum Channel number.
1107:Drivers/STM32L4xx_HAL_Driver/Src/stm32l4xx_hal_hcd.c ****   *         This parameter can be a value from 1 to 15
1108:Drivers/STM32L4xx_HAL_Driver/Src/stm32l4xx_hal_hcd.c ****   * @retval Host channel state
1109:Drivers/STM32L4xx_HAL_Driver/Src/stm32l4xx_hal_hcd.c ****   *          This parameter can be one of these values:
1110:Drivers/STM32L4xx_HAL_Driver/Src/stm32l4xx_hal_hcd.c ****   *            HC_IDLE/
1111:Drivers/STM32L4xx_HAL_Driver/Src/stm32l4xx_hal_hcd.c ****   *            HC_XFRC/
1112:Drivers/STM32L4xx_HAL_Driver/Src/stm32l4xx_hal_hcd.c ****   *            HC_HALTED/
1113:Drivers/STM32L4xx_HAL_Driver/Src/stm32l4xx_hal_hcd.c ****   *            HC_NYET/
1114:Drivers/STM32L4xx_HAL_Driver/Src/stm32l4xx_hal_hcd.c ****   *            HC_NAK/
1115:Drivers/STM32L4xx_HAL_Driver/Src/stm32l4xx_hal_hcd.c ****   *            HC_STALL/
ARM GAS  /tmp/cckZR06T.s 			page 21


1116:Drivers/STM32L4xx_HAL_Driver/Src/stm32l4xx_hal_hcd.c ****   *            HC_XACTERR/
1117:Drivers/STM32L4xx_HAL_Driver/Src/stm32l4xx_hal_hcd.c ****   *            HC_BBLERR/
1118:Drivers/STM32L4xx_HAL_Driver/Src/stm32l4xx_hal_hcd.c ****   *            HC_DATATGLERR
1119:Drivers/STM32L4xx_HAL_Driver/Src/stm32l4xx_hal_hcd.c ****   */
1120:Drivers/STM32L4xx_HAL_Driver/Src/stm32l4xx_hal_hcd.c **** HCD_HCStateTypeDef  HAL_HCD_HC_GetState(HCD_HandleTypeDef *hhcd, uint8_t chnum)
1121:Drivers/STM32L4xx_HAL_Driver/Src/stm32l4xx_hal_hcd.c **** {
1122:Drivers/STM32L4xx_HAL_Driver/Src/stm32l4xx_hal_hcd.c ****   return hhcd->hc[chnum].state;
1123:Drivers/STM32L4xx_HAL_Driver/Src/stm32l4xx_hal_hcd.c **** }
1124:Drivers/STM32L4xx_HAL_Driver/Src/stm32l4xx_hal_hcd.c **** 
1125:Drivers/STM32L4xx_HAL_Driver/Src/stm32l4xx_hal_hcd.c **** /**
1126:Drivers/STM32L4xx_HAL_Driver/Src/stm32l4xx_hal_hcd.c ****   * @brief  Return the current Host frame number.
1127:Drivers/STM32L4xx_HAL_Driver/Src/stm32l4xx_hal_hcd.c ****   * @param  hhcd HCD handle
1128:Drivers/STM32L4xx_HAL_Driver/Src/stm32l4xx_hal_hcd.c ****   * @retval Current Host frame number
1129:Drivers/STM32L4xx_HAL_Driver/Src/stm32l4xx_hal_hcd.c ****   */
1130:Drivers/STM32L4xx_HAL_Driver/Src/stm32l4xx_hal_hcd.c **** uint32_t HAL_HCD_GetCurrentFrame(HCD_HandleTypeDef *hhcd)
1131:Drivers/STM32L4xx_HAL_Driver/Src/stm32l4xx_hal_hcd.c **** {
1132:Drivers/STM32L4xx_HAL_Driver/Src/stm32l4xx_hal_hcd.c ****   return (USB_GetCurrentFrame(hhcd->Instance));
1133:Drivers/STM32L4xx_HAL_Driver/Src/stm32l4xx_hal_hcd.c **** }
1134:Drivers/STM32L4xx_HAL_Driver/Src/stm32l4xx_hal_hcd.c **** 
1135:Drivers/STM32L4xx_HAL_Driver/Src/stm32l4xx_hal_hcd.c **** /**
1136:Drivers/STM32L4xx_HAL_Driver/Src/stm32l4xx_hal_hcd.c ****   * @brief  Return the Host enumeration speed.
1137:Drivers/STM32L4xx_HAL_Driver/Src/stm32l4xx_hal_hcd.c ****   * @param  hhcd HCD handle
1138:Drivers/STM32L4xx_HAL_Driver/Src/stm32l4xx_hal_hcd.c ****   * @retval Enumeration speed
1139:Drivers/STM32L4xx_HAL_Driver/Src/stm32l4xx_hal_hcd.c ****   */
1140:Drivers/STM32L4xx_HAL_Driver/Src/stm32l4xx_hal_hcd.c **** uint32_t HAL_HCD_GetCurrentSpeed(HCD_HandleTypeDef *hhcd)
1141:Drivers/STM32L4xx_HAL_Driver/Src/stm32l4xx_hal_hcd.c **** {
1142:Drivers/STM32L4xx_HAL_Driver/Src/stm32l4xx_hal_hcd.c ****   return (USB_GetHostSpeed(hhcd->Instance));
1143:Drivers/STM32L4xx_HAL_Driver/Src/stm32l4xx_hal_hcd.c **** }
1144:Drivers/STM32L4xx_HAL_Driver/Src/stm32l4xx_hal_hcd.c **** 
1145:Drivers/STM32L4xx_HAL_Driver/Src/stm32l4xx_hal_hcd.c **** /**
1146:Drivers/STM32L4xx_HAL_Driver/Src/stm32l4xx_hal_hcd.c ****   * @}
1147:Drivers/STM32L4xx_HAL_Driver/Src/stm32l4xx_hal_hcd.c ****   */
1148:Drivers/STM32L4xx_HAL_Driver/Src/stm32l4xx_hal_hcd.c **** 
1149:Drivers/STM32L4xx_HAL_Driver/Src/stm32l4xx_hal_hcd.c **** /**
1150:Drivers/STM32L4xx_HAL_Driver/Src/stm32l4xx_hal_hcd.c ****   * @}
1151:Drivers/STM32L4xx_HAL_Driver/Src/stm32l4xx_hal_hcd.c ****   */
1152:Drivers/STM32L4xx_HAL_Driver/Src/stm32l4xx_hal_hcd.c **** 
1153:Drivers/STM32L4xx_HAL_Driver/Src/stm32l4xx_hal_hcd.c **** /** @addtogroup HCD_Private_Functions
1154:Drivers/STM32L4xx_HAL_Driver/Src/stm32l4xx_hal_hcd.c ****   * @{
1155:Drivers/STM32L4xx_HAL_Driver/Src/stm32l4xx_hal_hcd.c ****   */
1156:Drivers/STM32L4xx_HAL_Driver/Src/stm32l4xx_hal_hcd.c **** /**
1157:Drivers/STM32L4xx_HAL_Driver/Src/stm32l4xx_hal_hcd.c ****   * @brief  Handle Host Channel IN interrupt requests.
1158:Drivers/STM32L4xx_HAL_Driver/Src/stm32l4xx_hal_hcd.c ****   * @param  hhcd HCD handle
1159:Drivers/STM32L4xx_HAL_Driver/Src/stm32l4xx_hal_hcd.c ****   * @param  chnum Channel number.
1160:Drivers/STM32L4xx_HAL_Driver/Src/stm32l4xx_hal_hcd.c ****   *         This parameter can be a value from 1 to 15
1161:Drivers/STM32L4xx_HAL_Driver/Src/stm32l4xx_hal_hcd.c ****   * @retval none
1162:Drivers/STM32L4xx_HAL_Driver/Src/stm32l4xx_hal_hcd.c ****   */
1163:Drivers/STM32L4xx_HAL_Driver/Src/stm32l4xx_hal_hcd.c **** static void HCD_HC_IN_IRQHandler(HCD_HandleTypeDef *hhcd, uint8_t chnum)
1164:Drivers/STM32L4xx_HAL_Driver/Src/stm32l4xx_hal_hcd.c **** {
1165:Drivers/STM32L4xx_HAL_Driver/Src/stm32l4xx_hal_hcd.c ****   USB_OTG_GlobalTypeDef *USBx = hhcd->Instance;
1166:Drivers/STM32L4xx_HAL_Driver/Src/stm32l4xx_hal_hcd.c ****   uint32_t USBx_BASE = (uint32_t)USBx;
1167:Drivers/STM32L4xx_HAL_Driver/Src/stm32l4xx_hal_hcd.c ****   uint32_t ch_num = (uint32_t)chnum;
1168:Drivers/STM32L4xx_HAL_Driver/Src/stm32l4xx_hal_hcd.c **** 
1169:Drivers/STM32L4xx_HAL_Driver/Src/stm32l4xx_hal_hcd.c ****   uint32_t tmpreg;
1170:Drivers/STM32L4xx_HAL_Driver/Src/stm32l4xx_hal_hcd.c **** 
1171:Drivers/STM32L4xx_HAL_Driver/Src/stm32l4xx_hal_hcd.c ****   if ((USBx_HC(ch_num)->HCINT & USB_OTG_HCINT_AHBERR) == USB_OTG_HCINT_AHBERR)
1172:Drivers/STM32L4xx_HAL_Driver/Src/stm32l4xx_hal_hcd.c ****   {
ARM GAS  /tmp/cckZR06T.s 			page 22


1173:Drivers/STM32L4xx_HAL_Driver/Src/stm32l4xx_hal_hcd.c ****     __HAL_HCD_CLEAR_HC_INT(ch_num, USB_OTG_HCINT_AHBERR);
1174:Drivers/STM32L4xx_HAL_Driver/Src/stm32l4xx_hal_hcd.c ****     __HAL_HCD_UNMASK_HALT_HC_INT(ch_num);
1175:Drivers/STM32L4xx_HAL_Driver/Src/stm32l4xx_hal_hcd.c ****   }
1176:Drivers/STM32L4xx_HAL_Driver/Src/stm32l4xx_hal_hcd.c ****   else if ((USBx_HC(ch_num)->HCINT & USB_OTG_HCINT_ACK) == USB_OTG_HCINT_ACK)
1177:Drivers/STM32L4xx_HAL_Driver/Src/stm32l4xx_hal_hcd.c ****   {
1178:Drivers/STM32L4xx_HAL_Driver/Src/stm32l4xx_hal_hcd.c ****     __HAL_HCD_CLEAR_HC_INT(ch_num, USB_OTG_HCINT_ACK);
1179:Drivers/STM32L4xx_HAL_Driver/Src/stm32l4xx_hal_hcd.c ****   }
1180:Drivers/STM32L4xx_HAL_Driver/Src/stm32l4xx_hal_hcd.c ****   else if ((USBx_HC(ch_num)->HCINT & USB_OTG_HCINT_STALL) == USB_OTG_HCINT_STALL)
1181:Drivers/STM32L4xx_HAL_Driver/Src/stm32l4xx_hal_hcd.c ****   {
1182:Drivers/STM32L4xx_HAL_Driver/Src/stm32l4xx_hal_hcd.c ****     __HAL_HCD_UNMASK_HALT_HC_INT(ch_num);
1183:Drivers/STM32L4xx_HAL_Driver/Src/stm32l4xx_hal_hcd.c ****     hhcd->hc[ch_num].state = HC_STALL;
1184:Drivers/STM32L4xx_HAL_Driver/Src/stm32l4xx_hal_hcd.c ****     __HAL_HCD_CLEAR_HC_INT(ch_num, USB_OTG_HCINT_NAK);
1185:Drivers/STM32L4xx_HAL_Driver/Src/stm32l4xx_hal_hcd.c ****     __HAL_HCD_CLEAR_HC_INT(ch_num, USB_OTG_HCINT_STALL);
1186:Drivers/STM32L4xx_HAL_Driver/Src/stm32l4xx_hal_hcd.c ****     (void)USB_HC_Halt(hhcd->Instance, (uint8_t)ch_num);
1187:Drivers/STM32L4xx_HAL_Driver/Src/stm32l4xx_hal_hcd.c ****   }
1188:Drivers/STM32L4xx_HAL_Driver/Src/stm32l4xx_hal_hcd.c ****   else if ((USBx_HC(ch_num)->HCINT & USB_OTG_HCINT_DTERR) == USB_OTG_HCINT_DTERR)
1189:Drivers/STM32L4xx_HAL_Driver/Src/stm32l4xx_hal_hcd.c ****   {
1190:Drivers/STM32L4xx_HAL_Driver/Src/stm32l4xx_hal_hcd.c ****     __HAL_HCD_UNMASK_HALT_HC_INT(ch_num);
1191:Drivers/STM32L4xx_HAL_Driver/Src/stm32l4xx_hal_hcd.c ****     (void)USB_HC_Halt(hhcd->Instance, (uint8_t)ch_num);
1192:Drivers/STM32L4xx_HAL_Driver/Src/stm32l4xx_hal_hcd.c ****     __HAL_HCD_CLEAR_HC_INT(ch_num, USB_OTG_HCINT_NAK);
1193:Drivers/STM32L4xx_HAL_Driver/Src/stm32l4xx_hal_hcd.c ****     hhcd->hc[ch_num].state = HC_DATATGLERR;
1194:Drivers/STM32L4xx_HAL_Driver/Src/stm32l4xx_hal_hcd.c ****     __HAL_HCD_CLEAR_HC_INT(ch_num, USB_OTG_HCINT_DTERR);
1195:Drivers/STM32L4xx_HAL_Driver/Src/stm32l4xx_hal_hcd.c ****   }
1196:Drivers/STM32L4xx_HAL_Driver/Src/stm32l4xx_hal_hcd.c ****   else
1197:Drivers/STM32L4xx_HAL_Driver/Src/stm32l4xx_hal_hcd.c ****   {
1198:Drivers/STM32L4xx_HAL_Driver/Src/stm32l4xx_hal_hcd.c ****     /* ... */
1199:Drivers/STM32L4xx_HAL_Driver/Src/stm32l4xx_hal_hcd.c ****   }
1200:Drivers/STM32L4xx_HAL_Driver/Src/stm32l4xx_hal_hcd.c **** 
1201:Drivers/STM32L4xx_HAL_Driver/Src/stm32l4xx_hal_hcd.c ****   if ((USBx_HC(ch_num)->HCINT & USB_OTG_HCINT_FRMOR) == USB_OTG_HCINT_FRMOR)
1202:Drivers/STM32L4xx_HAL_Driver/Src/stm32l4xx_hal_hcd.c ****   {
1203:Drivers/STM32L4xx_HAL_Driver/Src/stm32l4xx_hal_hcd.c ****     __HAL_HCD_UNMASK_HALT_HC_INT(ch_num);
1204:Drivers/STM32L4xx_HAL_Driver/Src/stm32l4xx_hal_hcd.c ****     (void)USB_HC_Halt(hhcd->Instance, (uint8_t)ch_num);
1205:Drivers/STM32L4xx_HAL_Driver/Src/stm32l4xx_hal_hcd.c ****     __HAL_HCD_CLEAR_HC_INT(ch_num, USB_OTG_HCINT_FRMOR);
1206:Drivers/STM32L4xx_HAL_Driver/Src/stm32l4xx_hal_hcd.c ****   }
1207:Drivers/STM32L4xx_HAL_Driver/Src/stm32l4xx_hal_hcd.c ****   else if ((USBx_HC(ch_num)->HCINT & USB_OTG_HCINT_XFRC) == USB_OTG_HCINT_XFRC)
1208:Drivers/STM32L4xx_HAL_Driver/Src/stm32l4xx_hal_hcd.c ****   {
1209:Drivers/STM32L4xx_HAL_Driver/Src/stm32l4xx_hal_hcd.c ****     if (hhcd->Init.dma_enable != 0U)
1210:Drivers/STM32L4xx_HAL_Driver/Src/stm32l4xx_hal_hcd.c ****     {
1211:Drivers/STM32L4xx_HAL_Driver/Src/stm32l4xx_hal_hcd.c ****       hhcd->hc[ch_num].xfer_count = hhcd->hc[ch_num].xfer_len - \
1212:Drivers/STM32L4xx_HAL_Driver/Src/stm32l4xx_hal_hcd.c ****                                     (USBx_HC(ch_num)->HCTSIZ & USB_OTG_HCTSIZ_XFRSIZ);
1213:Drivers/STM32L4xx_HAL_Driver/Src/stm32l4xx_hal_hcd.c ****     }
1214:Drivers/STM32L4xx_HAL_Driver/Src/stm32l4xx_hal_hcd.c **** 
1215:Drivers/STM32L4xx_HAL_Driver/Src/stm32l4xx_hal_hcd.c ****     hhcd->hc[ch_num].state = HC_XFRC;
1216:Drivers/STM32L4xx_HAL_Driver/Src/stm32l4xx_hal_hcd.c ****     hhcd->hc[ch_num].ErrCnt = 0U;
1217:Drivers/STM32L4xx_HAL_Driver/Src/stm32l4xx_hal_hcd.c ****     __HAL_HCD_CLEAR_HC_INT(ch_num, USB_OTG_HCINT_XFRC);
1218:Drivers/STM32L4xx_HAL_Driver/Src/stm32l4xx_hal_hcd.c **** 
1219:Drivers/STM32L4xx_HAL_Driver/Src/stm32l4xx_hal_hcd.c ****     if ((hhcd->hc[ch_num].ep_type == EP_TYPE_CTRL) ||
1220:Drivers/STM32L4xx_HAL_Driver/Src/stm32l4xx_hal_hcd.c ****         (hhcd->hc[ch_num].ep_type == EP_TYPE_BULK))
1221:Drivers/STM32L4xx_HAL_Driver/Src/stm32l4xx_hal_hcd.c ****     {
1222:Drivers/STM32L4xx_HAL_Driver/Src/stm32l4xx_hal_hcd.c ****       __HAL_HCD_UNMASK_HALT_HC_INT(ch_num);
1223:Drivers/STM32L4xx_HAL_Driver/Src/stm32l4xx_hal_hcd.c ****       (void)USB_HC_Halt(hhcd->Instance, (uint8_t)ch_num);
1224:Drivers/STM32L4xx_HAL_Driver/Src/stm32l4xx_hal_hcd.c ****       __HAL_HCD_CLEAR_HC_INT(ch_num, USB_OTG_HCINT_NAK);
1225:Drivers/STM32L4xx_HAL_Driver/Src/stm32l4xx_hal_hcd.c ****     }
1226:Drivers/STM32L4xx_HAL_Driver/Src/stm32l4xx_hal_hcd.c ****     else if (hhcd->hc[ch_num].ep_type == EP_TYPE_INTR)
1227:Drivers/STM32L4xx_HAL_Driver/Src/stm32l4xx_hal_hcd.c ****     {
1228:Drivers/STM32L4xx_HAL_Driver/Src/stm32l4xx_hal_hcd.c ****       USBx_HC(ch_num)->HCCHAR |= USB_OTG_HCCHAR_ODDFRM;
1229:Drivers/STM32L4xx_HAL_Driver/Src/stm32l4xx_hal_hcd.c ****       hhcd->hc[ch_num].urb_state = URB_DONE;
ARM GAS  /tmp/cckZR06T.s 			page 23


1230:Drivers/STM32L4xx_HAL_Driver/Src/stm32l4xx_hal_hcd.c **** 
1231:Drivers/STM32L4xx_HAL_Driver/Src/stm32l4xx_hal_hcd.c **** #if (USE_HAL_HCD_REGISTER_CALLBACKS == 1U)
1232:Drivers/STM32L4xx_HAL_Driver/Src/stm32l4xx_hal_hcd.c ****       hhcd->HC_NotifyURBChangeCallback(hhcd, (uint8_t)ch_num, hhcd->hc[ch_num].urb_state);
1233:Drivers/STM32L4xx_HAL_Driver/Src/stm32l4xx_hal_hcd.c **** #else
1234:Drivers/STM32L4xx_HAL_Driver/Src/stm32l4xx_hal_hcd.c ****       HAL_HCD_HC_NotifyURBChange_Callback(hhcd, (uint8_t)ch_num, hhcd->hc[ch_num].urb_state);
1235:Drivers/STM32L4xx_HAL_Driver/Src/stm32l4xx_hal_hcd.c **** #endif /* USE_HAL_HCD_REGISTER_CALLBACKS */
1236:Drivers/STM32L4xx_HAL_Driver/Src/stm32l4xx_hal_hcd.c ****     }
1237:Drivers/STM32L4xx_HAL_Driver/Src/stm32l4xx_hal_hcd.c ****     else
1238:Drivers/STM32L4xx_HAL_Driver/Src/stm32l4xx_hal_hcd.c ****     {
1239:Drivers/STM32L4xx_HAL_Driver/Src/stm32l4xx_hal_hcd.c ****       /* ... */
1240:Drivers/STM32L4xx_HAL_Driver/Src/stm32l4xx_hal_hcd.c ****     }
1241:Drivers/STM32L4xx_HAL_Driver/Src/stm32l4xx_hal_hcd.c ****     hhcd->hc[ch_num].toggle_in ^= 1U;
1242:Drivers/STM32L4xx_HAL_Driver/Src/stm32l4xx_hal_hcd.c **** 
1243:Drivers/STM32L4xx_HAL_Driver/Src/stm32l4xx_hal_hcd.c ****   }
1244:Drivers/STM32L4xx_HAL_Driver/Src/stm32l4xx_hal_hcd.c ****   else if ((USBx_HC(ch_num)->HCINT & USB_OTG_HCINT_CHH) == USB_OTG_HCINT_CHH)
1245:Drivers/STM32L4xx_HAL_Driver/Src/stm32l4xx_hal_hcd.c ****   {
1246:Drivers/STM32L4xx_HAL_Driver/Src/stm32l4xx_hal_hcd.c ****     __HAL_HCD_MASK_HALT_HC_INT(ch_num);
1247:Drivers/STM32L4xx_HAL_Driver/Src/stm32l4xx_hal_hcd.c **** 
1248:Drivers/STM32L4xx_HAL_Driver/Src/stm32l4xx_hal_hcd.c ****     if (hhcd->hc[ch_num].state == HC_XFRC)
1249:Drivers/STM32L4xx_HAL_Driver/Src/stm32l4xx_hal_hcd.c ****     {
1250:Drivers/STM32L4xx_HAL_Driver/Src/stm32l4xx_hal_hcd.c ****       hhcd->hc[ch_num].urb_state  = URB_DONE;
1251:Drivers/STM32L4xx_HAL_Driver/Src/stm32l4xx_hal_hcd.c ****     }
1252:Drivers/STM32L4xx_HAL_Driver/Src/stm32l4xx_hal_hcd.c ****     else if (hhcd->hc[ch_num].state == HC_STALL)
1253:Drivers/STM32L4xx_HAL_Driver/Src/stm32l4xx_hal_hcd.c ****     {
1254:Drivers/STM32L4xx_HAL_Driver/Src/stm32l4xx_hal_hcd.c ****       hhcd->hc[ch_num].urb_state  = URB_STALL;
1255:Drivers/STM32L4xx_HAL_Driver/Src/stm32l4xx_hal_hcd.c ****     }
1256:Drivers/STM32L4xx_HAL_Driver/Src/stm32l4xx_hal_hcd.c ****     else if ((hhcd->hc[ch_num].state == HC_XACTERR) ||
1257:Drivers/STM32L4xx_HAL_Driver/Src/stm32l4xx_hal_hcd.c ****              (hhcd->hc[ch_num].state == HC_DATATGLERR))
1258:Drivers/STM32L4xx_HAL_Driver/Src/stm32l4xx_hal_hcd.c ****     {
1259:Drivers/STM32L4xx_HAL_Driver/Src/stm32l4xx_hal_hcd.c ****       hhcd->hc[ch_num].ErrCnt++;
1260:Drivers/STM32L4xx_HAL_Driver/Src/stm32l4xx_hal_hcd.c ****       if (hhcd->hc[ch_num].ErrCnt > 3U)
1261:Drivers/STM32L4xx_HAL_Driver/Src/stm32l4xx_hal_hcd.c ****       {
1262:Drivers/STM32L4xx_HAL_Driver/Src/stm32l4xx_hal_hcd.c ****         hhcd->hc[ch_num].ErrCnt = 0U;
1263:Drivers/STM32L4xx_HAL_Driver/Src/stm32l4xx_hal_hcd.c ****         hhcd->hc[ch_num].urb_state = URB_ERROR;
1264:Drivers/STM32L4xx_HAL_Driver/Src/stm32l4xx_hal_hcd.c ****       }
1265:Drivers/STM32L4xx_HAL_Driver/Src/stm32l4xx_hal_hcd.c ****       else
1266:Drivers/STM32L4xx_HAL_Driver/Src/stm32l4xx_hal_hcd.c ****       {
1267:Drivers/STM32L4xx_HAL_Driver/Src/stm32l4xx_hal_hcd.c ****         hhcd->hc[ch_num].urb_state = URB_NOTREADY;
1268:Drivers/STM32L4xx_HAL_Driver/Src/stm32l4xx_hal_hcd.c ****       }
1269:Drivers/STM32L4xx_HAL_Driver/Src/stm32l4xx_hal_hcd.c **** 
1270:Drivers/STM32L4xx_HAL_Driver/Src/stm32l4xx_hal_hcd.c ****       /* re-activate the channel  */
1271:Drivers/STM32L4xx_HAL_Driver/Src/stm32l4xx_hal_hcd.c ****       tmpreg = USBx_HC(ch_num)->HCCHAR;
1272:Drivers/STM32L4xx_HAL_Driver/Src/stm32l4xx_hal_hcd.c ****       tmpreg &= ~USB_OTG_HCCHAR_CHDIS;
1273:Drivers/STM32L4xx_HAL_Driver/Src/stm32l4xx_hal_hcd.c ****       tmpreg |= USB_OTG_HCCHAR_CHENA;
1274:Drivers/STM32L4xx_HAL_Driver/Src/stm32l4xx_hal_hcd.c ****       USBx_HC(ch_num)->HCCHAR = tmpreg;
1275:Drivers/STM32L4xx_HAL_Driver/Src/stm32l4xx_hal_hcd.c ****     }
1276:Drivers/STM32L4xx_HAL_Driver/Src/stm32l4xx_hal_hcd.c ****     else if (hhcd->hc[ch_num].state == HC_NAK)
1277:Drivers/STM32L4xx_HAL_Driver/Src/stm32l4xx_hal_hcd.c ****     {
1278:Drivers/STM32L4xx_HAL_Driver/Src/stm32l4xx_hal_hcd.c ****       hhcd->hc[ch_num].urb_state  = URB_NOTREADY;
1279:Drivers/STM32L4xx_HAL_Driver/Src/stm32l4xx_hal_hcd.c ****       /* re-activate the channel  */
1280:Drivers/STM32L4xx_HAL_Driver/Src/stm32l4xx_hal_hcd.c ****       tmpreg = USBx_HC(ch_num)->HCCHAR;
1281:Drivers/STM32L4xx_HAL_Driver/Src/stm32l4xx_hal_hcd.c ****       tmpreg &= ~USB_OTG_HCCHAR_CHDIS;
1282:Drivers/STM32L4xx_HAL_Driver/Src/stm32l4xx_hal_hcd.c ****       tmpreg |= USB_OTG_HCCHAR_CHENA;
1283:Drivers/STM32L4xx_HAL_Driver/Src/stm32l4xx_hal_hcd.c ****       USBx_HC(ch_num)->HCCHAR = tmpreg;
1284:Drivers/STM32L4xx_HAL_Driver/Src/stm32l4xx_hal_hcd.c ****     }
1285:Drivers/STM32L4xx_HAL_Driver/Src/stm32l4xx_hal_hcd.c ****     else
1286:Drivers/STM32L4xx_HAL_Driver/Src/stm32l4xx_hal_hcd.c ****     {
ARM GAS  /tmp/cckZR06T.s 			page 24


1287:Drivers/STM32L4xx_HAL_Driver/Src/stm32l4xx_hal_hcd.c ****       /* ... */
1288:Drivers/STM32L4xx_HAL_Driver/Src/stm32l4xx_hal_hcd.c ****     }
1289:Drivers/STM32L4xx_HAL_Driver/Src/stm32l4xx_hal_hcd.c ****     __HAL_HCD_CLEAR_HC_INT(ch_num, USB_OTG_HCINT_CHH);
1290:Drivers/STM32L4xx_HAL_Driver/Src/stm32l4xx_hal_hcd.c ****     HAL_HCD_HC_NotifyURBChange_Callback(hhcd, (uint8_t)ch_num, hhcd->hc[ch_num].urb_state);
1291:Drivers/STM32L4xx_HAL_Driver/Src/stm32l4xx_hal_hcd.c ****   }
1292:Drivers/STM32L4xx_HAL_Driver/Src/stm32l4xx_hal_hcd.c ****   else if ((USBx_HC(ch_num)->HCINT & USB_OTG_HCINT_TXERR) == USB_OTG_HCINT_TXERR)
1293:Drivers/STM32L4xx_HAL_Driver/Src/stm32l4xx_hal_hcd.c ****   {
1294:Drivers/STM32L4xx_HAL_Driver/Src/stm32l4xx_hal_hcd.c ****     __HAL_HCD_UNMASK_HALT_HC_INT(ch_num);
1295:Drivers/STM32L4xx_HAL_Driver/Src/stm32l4xx_hal_hcd.c ****     hhcd->hc[ch_num].ErrCnt++;
1296:Drivers/STM32L4xx_HAL_Driver/Src/stm32l4xx_hal_hcd.c ****     hhcd->hc[ch_num].state = HC_XACTERR;
1297:Drivers/STM32L4xx_HAL_Driver/Src/stm32l4xx_hal_hcd.c ****     (void)USB_HC_Halt(hhcd->Instance, (uint8_t)ch_num);
1298:Drivers/STM32L4xx_HAL_Driver/Src/stm32l4xx_hal_hcd.c ****     __HAL_HCD_CLEAR_HC_INT(ch_num, USB_OTG_HCINT_TXERR);
1299:Drivers/STM32L4xx_HAL_Driver/Src/stm32l4xx_hal_hcd.c ****   }
1300:Drivers/STM32L4xx_HAL_Driver/Src/stm32l4xx_hal_hcd.c ****   else if ((USBx_HC(ch_num)->HCINT & USB_OTG_HCINT_NAK) == USB_OTG_HCINT_NAK)
1301:Drivers/STM32L4xx_HAL_Driver/Src/stm32l4xx_hal_hcd.c ****   {
1302:Drivers/STM32L4xx_HAL_Driver/Src/stm32l4xx_hal_hcd.c ****     if (hhcd->hc[ch_num].ep_type == EP_TYPE_INTR)
1303:Drivers/STM32L4xx_HAL_Driver/Src/stm32l4xx_hal_hcd.c ****     {
1304:Drivers/STM32L4xx_HAL_Driver/Src/stm32l4xx_hal_hcd.c ****       hhcd->hc[ch_num].ErrCnt = 0U;
1305:Drivers/STM32L4xx_HAL_Driver/Src/stm32l4xx_hal_hcd.c ****       __HAL_HCD_UNMASK_HALT_HC_INT(ch_num);
1306:Drivers/STM32L4xx_HAL_Driver/Src/stm32l4xx_hal_hcd.c ****       (void)USB_HC_Halt(hhcd->Instance, (uint8_t)ch_num);
1307:Drivers/STM32L4xx_HAL_Driver/Src/stm32l4xx_hal_hcd.c ****     }
1308:Drivers/STM32L4xx_HAL_Driver/Src/stm32l4xx_hal_hcd.c ****     else if ((hhcd->hc[ch_num].ep_type == EP_TYPE_CTRL) ||
1309:Drivers/STM32L4xx_HAL_Driver/Src/stm32l4xx_hal_hcd.c ****              (hhcd->hc[ch_num].ep_type == EP_TYPE_BULK))
1310:Drivers/STM32L4xx_HAL_Driver/Src/stm32l4xx_hal_hcd.c ****     {
1311:Drivers/STM32L4xx_HAL_Driver/Src/stm32l4xx_hal_hcd.c ****       hhcd->hc[ch_num].ErrCnt = 0U;
1312:Drivers/STM32L4xx_HAL_Driver/Src/stm32l4xx_hal_hcd.c ****       if (hhcd->Init.dma_enable == 0U)
1313:Drivers/STM32L4xx_HAL_Driver/Src/stm32l4xx_hal_hcd.c ****       {
1314:Drivers/STM32L4xx_HAL_Driver/Src/stm32l4xx_hal_hcd.c ****         hhcd->hc[ch_num].state = HC_NAK;
1315:Drivers/STM32L4xx_HAL_Driver/Src/stm32l4xx_hal_hcd.c ****         __HAL_HCD_UNMASK_HALT_HC_INT(ch_num);
1316:Drivers/STM32L4xx_HAL_Driver/Src/stm32l4xx_hal_hcd.c ****         (void)USB_HC_Halt(hhcd->Instance, (uint8_t)ch_num);
1317:Drivers/STM32L4xx_HAL_Driver/Src/stm32l4xx_hal_hcd.c ****       }
1318:Drivers/STM32L4xx_HAL_Driver/Src/stm32l4xx_hal_hcd.c ****     }
1319:Drivers/STM32L4xx_HAL_Driver/Src/stm32l4xx_hal_hcd.c ****     else
1320:Drivers/STM32L4xx_HAL_Driver/Src/stm32l4xx_hal_hcd.c ****     {
1321:Drivers/STM32L4xx_HAL_Driver/Src/stm32l4xx_hal_hcd.c ****       /* ... */
1322:Drivers/STM32L4xx_HAL_Driver/Src/stm32l4xx_hal_hcd.c ****     }
1323:Drivers/STM32L4xx_HAL_Driver/Src/stm32l4xx_hal_hcd.c ****     __HAL_HCD_CLEAR_HC_INT(ch_num, USB_OTG_HCINT_NAK);
1324:Drivers/STM32L4xx_HAL_Driver/Src/stm32l4xx_hal_hcd.c ****   }
1325:Drivers/STM32L4xx_HAL_Driver/Src/stm32l4xx_hal_hcd.c ****   else
1326:Drivers/STM32L4xx_HAL_Driver/Src/stm32l4xx_hal_hcd.c ****   {
1327:Drivers/STM32L4xx_HAL_Driver/Src/stm32l4xx_hal_hcd.c ****     /* ... */
1328:Drivers/STM32L4xx_HAL_Driver/Src/stm32l4xx_hal_hcd.c ****   }
1329:Drivers/STM32L4xx_HAL_Driver/Src/stm32l4xx_hal_hcd.c **** }
1330:Drivers/STM32L4xx_HAL_Driver/Src/stm32l4xx_hal_hcd.c **** 
1331:Drivers/STM32L4xx_HAL_Driver/Src/stm32l4xx_hal_hcd.c **** /**
1332:Drivers/STM32L4xx_HAL_Driver/Src/stm32l4xx_hal_hcd.c ****   * @brief  Handle Host Channel OUT interrupt requests.
1333:Drivers/STM32L4xx_HAL_Driver/Src/stm32l4xx_hal_hcd.c ****   * @param  hhcd HCD handle
1334:Drivers/STM32L4xx_HAL_Driver/Src/stm32l4xx_hal_hcd.c ****   * @param  chnum Channel number.
1335:Drivers/STM32L4xx_HAL_Driver/Src/stm32l4xx_hal_hcd.c ****   *         This parameter can be a value from 1 to 15
1336:Drivers/STM32L4xx_HAL_Driver/Src/stm32l4xx_hal_hcd.c ****   * @retval none
1337:Drivers/STM32L4xx_HAL_Driver/Src/stm32l4xx_hal_hcd.c ****   */
1338:Drivers/STM32L4xx_HAL_Driver/Src/stm32l4xx_hal_hcd.c **** static void HCD_HC_OUT_IRQHandler(HCD_HandleTypeDef *hhcd, uint8_t chnum)
1339:Drivers/STM32L4xx_HAL_Driver/Src/stm32l4xx_hal_hcd.c **** {
1340:Drivers/STM32L4xx_HAL_Driver/Src/stm32l4xx_hal_hcd.c ****   USB_OTG_GlobalTypeDef *USBx = hhcd->Instance;
1341:Drivers/STM32L4xx_HAL_Driver/Src/stm32l4xx_hal_hcd.c ****   uint32_t USBx_BASE = (uint32_t)USBx;
1342:Drivers/STM32L4xx_HAL_Driver/Src/stm32l4xx_hal_hcd.c ****   uint32_t ch_num = (uint32_t)chnum;
1343:Drivers/STM32L4xx_HAL_Driver/Src/stm32l4xx_hal_hcd.c ****   uint32_t tmpreg;
ARM GAS  /tmp/cckZR06T.s 			page 25


1344:Drivers/STM32L4xx_HAL_Driver/Src/stm32l4xx_hal_hcd.c **** 
1345:Drivers/STM32L4xx_HAL_Driver/Src/stm32l4xx_hal_hcd.c ****   if ((USBx_HC(ch_num)->HCINT & USB_OTG_HCINT_AHBERR) == USB_OTG_HCINT_AHBERR)
1346:Drivers/STM32L4xx_HAL_Driver/Src/stm32l4xx_hal_hcd.c ****   {
1347:Drivers/STM32L4xx_HAL_Driver/Src/stm32l4xx_hal_hcd.c ****     __HAL_HCD_CLEAR_HC_INT(ch_num, USB_OTG_HCINT_AHBERR);
1348:Drivers/STM32L4xx_HAL_Driver/Src/stm32l4xx_hal_hcd.c ****     __HAL_HCD_UNMASK_HALT_HC_INT(ch_num);
1349:Drivers/STM32L4xx_HAL_Driver/Src/stm32l4xx_hal_hcd.c ****   }
1350:Drivers/STM32L4xx_HAL_Driver/Src/stm32l4xx_hal_hcd.c ****   else if ((USBx_HC(ch_num)->HCINT & USB_OTG_HCINT_ACK) == USB_OTG_HCINT_ACK)
1351:Drivers/STM32L4xx_HAL_Driver/Src/stm32l4xx_hal_hcd.c ****   {
1352:Drivers/STM32L4xx_HAL_Driver/Src/stm32l4xx_hal_hcd.c ****     __HAL_HCD_CLEAR_HC_INT(ch_num, USB_OTG_HCINT_ACK);
1353:Drivers/STM32L4xx_HAL_Driver/Src/stm32l4xx_hal_hcd.c **** 
1354:Drivers/STM32L4xx_HAL_Driver/Src/stm32l4xx_hal_hcd.c ****     if (hhcd->hc[ch_num].do_ping == 1U)
1355:Drivers/STM32L4xx_HAL_Driver/Src/stm32l4xx_hal_hcd.c ****     {
1356:Drivers/STM32L4xx_HAL_Driver/Src/stm32l4xx_hal_hcd.c ****       hhcd->hc[ch_num].do_ping = 0U;
1357:Drivers/STM32L4xx_HAL_Driver/Src/stm32l4xx_hal_hcd.c ****       hhcd->hc[ch_num].urb_state  = URB_NOTREADY;
1358:Drivers/STM32L4xx_HAL_Driver/Src/stm32l4xx_hal_hcd.c ****       __HAL_HCD_UNMASK_HALT_HC_INT(ch_num);
1359:Drivers/STM32L4xx_HAL_Driver/Src/stm32l4xx_hal_hcd.c ****       (void)USB_HC_Halt(hhcd->Instance, (uint8_t)ch_num);
1360:Drivers/STM32L4xx_HAL_Driver/Src/stm32l4xx_hal_hcd.c ****     }
1361:Drivers/STM32L4xx_HAL_Driver/Src/stm32l4xx_hal_hcd.c ****   }
1362:Drivers/STM32L4xx_HAL_Driver/Src/stm32l4xx_hal_hcd.c ****   else if ((USBx_HC(ch_num)->HCINT & USB_OTG_HCINT_NYET) == USB_OTG_HCINT_NYET)
1363:Drivers/STM32L4xx_HAL_Driver/Src/stm32l4xx_hal_hcd.c ****   {
1364:Drivers/STM32L4xx_HAL_Driver/Src/stm32l4xx_hal_hcd.c ****     hhcd->hc[ch_num].state = HC_NYET;
1365:Drivers/STM32L4xx_HAL_Driver/Src/stm32l4xx_hal_hcd.c ****     hhcd->hc[ch_num].do_ping = 1U;
1366:Drivers/STM32L4xx_HAL_Driver/Src/stm32l4xx_hal_hcd.c ****     hhcd->hc[ch_num].ErrCnt = 0U;
1367:Drivers/STM32L4xx_HAL_Driver/Src/stm32l4xx_hal_hcd.c ****     __HAL_HCD_UNMASK_HALT_HC_INT(ch_num);
1368:Drivers/STM32L4xx_HAL_Driver/Src/stm32l4xx_hal_hcd.c ****     (void)USB_HC_Halt(hhcd->Instance, (uint8_t)ch_num);
1369:Drivers/STM32L4xx_HAL_Driver/Src/stm32l4xx_hal_hcd.c ****     __HAL_HCD_CLEAR_HC_INT(ch_num, USB_OTG_HCINT_NYET);
1370:Drivers/STM32L4xx_HAL_Driver/Src/stm32l4xx_hal_hcd.c ****   }
1371:Drivers/STM32L4xx_HAL_Driver/Src/stm32l4xx_hal_hcd.c ****   else if ((USBx_HC(ch_num)->HCINT & USB_OTG_HCINT_FRMOR) == USB_OTG_HCINT_FRMOR)
1372:Drivers/STM32L4xx_HAL_Driver/Src/stm32l4xx_hal_hcd.c ****   {
1373:Drivers/STM32L4xx_HAL_Driver/Src/stm32l4xx_hal_hcd.c ****     __HAL_HCD_UNMASK_HALT_HC_INT(ch_num);
1374:Drivers/STM32L4xx_HAL_Driver/Src/stm32l4xx_hal_hcd.c ****     (void)USB_HC_Halt(hhcd->Instance, (uint8_t)ch_num);
1375:Drivers/STM32L4xx_HAL_Driver/Src/stm32l4xx_hal_hcd.c ****     __HAL_HCD_CLEAR_HC_INT(ch_num, USB_OTG_HCINT_FRMOR);
1376:Drivers/STM32L4xx_HAL_Driver/Src/stm32l4xx_hal_hcd.c ****   }
1377:Drivers/STM32L4xx_HAL_Driver/Src/stm32l4xx_hal_hcd.c ****   else if ((USBx_HC(ch_num)->HCINT & USB_OTG_HCINT_XFRC) == USB_OTG_HCINT_XFRC)
1378:Drivers/STM32L4xx_HAL_Driver/Src/stm32l4xx_hal_hcd.c ****   {
1379:Drivers/STM32L4xx_HAL_Driver/Src/stm32l4xx_hal_hcd.c ****     hhcd->hc[ch_num].ErrCnt = 0U;
1380:Drivers/STM32L4xx_HAL_Driver/Src/stm32l4xx_hal_hcd.c ****     __HAL_HCD_UNMASK_HALT_HC_INT(ch_num);
1381:Drivers/STM32L4xx_HAL_Driver/Src/stm32l4xx_hal_hcd.c ****     (void)USB_HC_Halt(hhcd->Instance, (uint8_t)ch_num);
1382:Drivers/STM32L4xx_HAL_Driver/Src/stm32l4xx_hal_hcd.c ****     __HAL_HCD_CLEAR_HC_INT(ch_num, USB_OTG_HCINT_XFRC);
1383:Drivers/STM32L4xx_HAL_Driver/Src/stm32l4xx_hal_hcd.c ****     hhcd->hc[ch_num].state = HC_XFRC;
1384:Drivers/STM32L4xx_HAL_Driver/Src/stm32l4xx_hal_hcd.c ****   }
1385:Drivers/STM32L4xx_HAL_Driver/Src/stm32l4xx_hal_hcd.c ****   else if ((USBx_HC(ch_num)->HCINT & USB_OTG_HCINT_STALL) == USB_OTG_HCINT_STALL)
1386:Drivers/STM32L4xx_HAL_Driver/Src/stm32l4xx_hal_hcd.c ****   {
1387:Drivers/STM32L4xx_HAL_Driver/Src/stm32l4xx_hal_hcd.c ****     __HAL_HCD_CLEAR_HC_INT(ch_num, USB_OTG_HCINT_STALL);
1388:Drivers/STM32L4xx_HAL_Driver/Src/stm32l4xx_hal_hcd.c ****     __HAL_HCD_UNMASK_HALT_HC_INT(ch_num);
1389:Drivers/STM32L4xx_HAL_Driver/Src/stm32l4xx_hal_hcd.c ****     (void)USB_HC_Halt(hhcd->Instance, (uint8_t)ch_num);
1390:Drivers/STM32L4xx_HAL_Driver/Src/stm32l4xx_hal_hcd.c ****     hhcd->hc[ch_num].state = HC_STALL;
1391:Drivers/STM32L4xx_HAL_Driver/Src/stm32l4xx_hal_hcd.c ****   }
1392:Drivers/STM32L4xx_HAL_Driver/Src/stm32l4xx_hal_hcd.c ****   else if ((USBx_HC(ch_num)->HCINT & USB_OTG_HCINT_NAK) == USB_OTG_HCINT_NAK)
1393:Drivers/STM32L4xx_HAL_Driver/Src/stm32l4xx_hal_hcd.c ****   {
1394:Drivers/STM32L4xx_HAL_Driver/Src/stm32l4xx_hal_hcd.c ****     hhcd->hc[ch_num].ErrCnt = 0U;
1395:Drivers/STM32L4xx_HAL_Driver/Src/stm32l4xx_hal_hcd.c ****     hhcd->hc[ch_num].state = HC_NAK;
1396:Drivers/STM32L4xx_HAL_Driver/Src/stm32l4xx_hal_hcd.c **** 
1397:Drivers/STM32L4xx_HAL_Driver/Src/stm32l4xx_hal_hcd.c ****     if (hhcd->hc[ch_num].do_ping == 0U)
1398:Drivers/STM32L4xx_HAL_Driver/Src/stm32l4xx_hal_hcd.c ****     {
1399:Drivers/STM32L4xx_HAL_Driver/Src/stm32l4xx_hal_hcd.c ****       if (hhcd->hc[ch_num].speed == HCD_SPEED_HIGH)
1400:Drivers/STM32L4xx_HAL_Driver/Src/stm32l4xx_hal_hcd.c ****       {
ARM GAS  /tmp/cckZR06T.s 			page 26


1401:Drivers/STM32L4xx_HAL_Driver/Src/stm32l4xx_hal_hcd.c ****         hhcd->hc[ch_num].do_ping = 1U;
1402:Drivers/STM32L4xx_HAL_Driver/Src/stm32l4xx_hal_hcd.c ****       }
1403:Drivers/STM32L4xx_HAL_Driver/Src/stm32l4xx_hal_hcd.c ****     }
1404:Drivers/STM32L4xx_HAL_Driver/Src/stm32l4xx_hal_hcd.c **** 
1405:Drivers/STM32L4xx_HAL_Driver/Src/stm32l4xx_hal_hcd.c ****     __HAL_HCD_UNMASK_HALT_HC_INT(ch_num);
1406:Drivers/STM32L4xx_HAL_Driver/Src/stm32l4xx_hal_hcd.c ****     (void)USB_HC_Halt(hhcd->Instance, (uint8_t)ch_num);
1407:Drivers/STM32L4xx_HAL_Driver/Src/stm32l4xx_hal_hcd.c ****     __HAL_HCD_CLEAR_HC_INT(ch_num, USB_OTG_HCINT_NAK);
1408:Drivers/STM32L4xx_HAL_Driver/Src/stm32l4xx_hal_hcd.c ****   }
1409:Drivers/STM32L4xx_HAL_Driver/Src/stm32l4xx_hal_hcd.c ****   else if ((USBx_HC(ch_num)->HCINT & USB_OTG_HCINT_TXERR) == USB_OTG_HCINT_TXERR)
1410:Drivers/STM32L4xx_HAL_Driver/Src/stm32l4xx_hal_hcd.c ****   {
1411:Drivers/STM32L4xx_HAL_Driver/Src/stm32l4xx_hal_hcd.c ****     __HAL_HCD_UNMASK_HALT_HC_INT(ch_num);
1412:Drivers/STM32L4xx_HAL_Driver/Src/stm32l4xx_hal_hcd.c ****     (void)USB_HC_Halt(hhcd->Instance, (uint8_t)ch_num);
1413:Drivers/STM32L4xx_HAL_Driver/Src/stm32l4xx_hal_hcd.c ****     hhcd->hc[ch_num].state = HC_XACTERR;
1414:Drivers/STM32L4xx_HAL_Driver/Src/stm32l4xx_hal_hcd.c ****     __HAL_HCD_CLEAR_HC_INT(ch_num, USB_OTG_HCINT_TXERR);
1415:Drivers/STM32L4xx_HAL_Driver/Src/stm32l4xx_hal_hcd.c ****   }
1416:Drivers/STM32L4xx_HAL_Driver/Src/stm32l4xx_hal_hcd.c ****   else if ((USBx_HC(ch_num)->HCINT & USB_OTG_HCINT_DTERR) == USB_OTG_HCINT_DTERR)
1417:Drivers/STM32L4xx_HAL_Driver/Src/stm32l4xx_hal_hcd.c ****   {
1418:Drivers/STM32L4xx_HAL_Driver/Src/stm32l4xx_hal_hcd.c ****     __HAL_HCD_UNMASK_HALT_HC_INT(ch_num);
1419:Drivers/STM32L4xx_HAL_Driver/Src/stm32l4xx_hal_hcd.c ****     (void)USB_HC_Halt(hhcd->Instance, (uint8_t)ch_num);
1420:Drivers/STM32L4xx_HAL_Driver/Src/stm32l4xx_hal_hcd.c ****     __HAL_HCD_CLEAR_HC_INT(ch_num, USB_OTG_HCINT_NAK);
1421:Drivers/STM32L4xx_HAL_Driver/Src/stm32l4xx_hal_hcd.c ****     __HAL_HCD_CLEAR_HC_INT(ch_num, USB_OTG_HCINT_DTERR);
1422:Drivers/STM32L4xx_HAL_Driver/Src/stm32l4xx_hal_hcd.c ****     hhcd->hc[ch_num].state = HC_DATATGLERR;
1423:Drivers/STM32L4xx_HAL_Driver/Src/stm32l4xx_hal_hcd.c ****   }
1424:Drivers/STM32L4xx_HAL_Driver/Src/stm32l4xx_hal_hcd.c ****   else if ((USBx_HC(ch_num)->HCINT & USB_OTG_HCINT_CHH) == USB_OTG_HCINT_CHH)
1425:Drivers/STM32L4xx_HAL_Driver/Src/stm32l4xx_hal_hcd.c ****   {
1426:Drivers/STM32L4xx_HAL_Driver/Src/stm32l4xx_hal_hcd.c ****     __HAL_HCD_MASK_HALT_HC_INT(ch_num);
1427:Drivers/STM32L4xx_HAL_Driver/Src/stm32l4xx_hal_hcd.c **** 
1428:Drivers/STM32L4xx_HAL_Driver/Src/stm32l4xx_hal_hcd.c ****     if (hhcd->hc[ch_num].state == HC_XFRC)
1429:Drivers/STM32L4xx_HAL_Driver/Src/stm32l4xx_hal_hcd.c ****     {
1430:Drivers/STM32L4xx_HAL_Driver/Src/stm32l4xx_hal_hcd.c ****       hhcd->hc[ch_num].urb_state  = URB_DONE;
1431:Drivers/STM32L4xx_HAL_Driver/Src/stm32l4xx_hal_hcd.c ****       if (hhcd->hc[ch_num].ep_type == EP_TYPE_BULK)
1432:Drivers/STM32L4xx_HAL_Driver/Src/stm32l4xx_hal_hcd.c ****       {
1433:Drivers/STM32L4xx_HAL_Driver/Src/stm32l4xx_hal_hcd.c ****         hhcd->hc[ch_num].toggle_out ^= 1U;
1434:Drivers/STM32L4xx_HAL_Driver/Src/stm32l4xx_hal_hcd.c ****       }
1435:Drivers/STM32L4xx_HAL_Driver/Src/stm32l4xx_hal_hcd.c ****     }
1436:Drivers/STM32L4xx_HAL_Driver/Src/stm32l4xx_hal_hcd.c ****     else if (hhcd->hc[ch_num].state == HC_NAK)
1437:Drivers/STM32L4xx_HAL_Driver/Src/stm32l4xx_hal_hcd.c ****     {
1438:Drivers/STM32L4xx_HAL_Driver/Src/stm32l4xx_hal_hcd.c ****       hhcd->hc[ch_num].urb_state = URB_NOTREADY;
1439:Drivers/STM32L4xx_HAL_Driver/Src/stm32l4xx_hal_hcd.c ****     }
1440:Drivers/STM32L4xx_HAL_Driver/Src/stm32l4xx_hal_hcd.c ****     else if (hhcd->hc[ch_num].state == HC_NYET)
1441:Drivers/STM32L4xx_HAL_Driver/Src/stm32l4xx_hal_hcd.c ****     {
1442:Drivers/STM32L4xx_HAL_Driver/Src/stm32l4xx_hal_hcd.c ****       hhcd->hc[ch_num].urb_state  = URB_NOTREADY;
1443:Drivers/STM32L4xx_HAL_Driver/Src/stm32l4xx_hal_hcd.c ****     }
1444:Drivers/STM32L4xx_HAL_Driver/Src/stm32l4xx_hal_hcd.c ****     else if (hhcd->hc[ch_num].state == HC_STALL)
1445:Drivers/STM32L4xx_HAL_Driver/Src/stm32l4xx_hal_hcd.c ****     {
1446:Drivers/STM32L4xx_HAL_Driver/Src/stm32l4xx_hal_hcd.c ****       hhcd->hc[ch_num].urb_state  = URB_STALL;
1447:Drivers/STM32L4xx_HAL_Driver/Src/stm32l4xx_hal_hcd.c ****     }
1448:Drivers/STM32L4xx_HAL_Driver/Src/stm32l4xx_hal_hcd.c ****     else if ((hhcd->hc[ch_num].state == HC_XACTERR) ||
1449:Drivers/STM32L4xx_HAL_Driver/Src/stm32l4xx_hal_hcd.c ****              (hhcd->hc[ch_num].state == HC_DATATGLERR))
1450:Drivers/STM32L4xx_HAL_Driver/Src/stm32l4xx_hal_hcd.c ****     {
1451:Drivers/STM32L4xx_HAL_Driver/Src/stm32l4xx_hal_hcd.c ****       hhcd->hc[ch_num].ErrCnt++;
1452:Drivers/STM32L4xx_HAL_Driver/Src/stm32l4xx_hal_hcd.c ****       if (hhcd->hc[ch_num].ErrCnt > 3U)
1453:Drivers/STM32L4xx_HAL_Driver/Src/stm32l4xx_hal_hcd.c ****       {
1454:Drivers/STM32L4xx_HAL_Driver/Src/stm32l4xx_hal_hcd.c ****         hhcd->hc[ch_num].ErrCnt = 0U;
1455:Drivers/STM32L4xx_HAL_Driver/Src/stm32l4xx_hal_hcd.c ****         hhcd->hc[ch_num].urb_state = URB_ERROR;
1456:Drivers/STM32L4xx_HAL_Driver/Src/stm32l4xx_hal_hcd.c ****       }
1457:Drivers/STM32L4xx_HAL_Driver/Src/stm32l4xx_hal_hcd.c ****       else
ARM GAS  /tmp/cckZR06T.s 			page 27


1458:Drivers/STM32L4xx_HAL_Driver/Src/stm32l4xx_hal_hcd.c ****       {
1459:Drivers/STM32L4xx_HAL_Driver/Src/stm32l4xx_hal_hcd.c ****         hhcd->hc[ch_num].urb_state = URB_NOTREADY;
1460:Drivers/STM32L4xx_HAL_Driver/Src/stm32l4xx_hal_hcd.c ****       }
1461:Drivers/STM32L4xx_HAL_Driver/Src/stm32l4xx_hal_hcd.c **** 
1462:Drivers/STM32L4xx_HAL_Driver/Src/stm32l4xx_hal_hcd.c ****       /* re-activate the channel  */
1463:Drivers/STM32L4xx_HAL_Driver/Src/stm32l4xx_hal_hcd.c ****       tmpreg = USBx_HC(ch_num)->HCCHAR;
1464:Drivers/STM32L4xx_HAL_Driver/Src/stm32l4xx_hal_hcd.c ****       tmpreg &= ~USB_OTG_HCCHAR_CHDIS;
1465:Drivers/STM32L4xx_HAL_Driver/Src/stm32l4xx_hal_hcd.c ****       tmpreg |= USB_OTG_HCCHAR_CHENA;
1466:Drivers/STM32L4xx_HAL_Driver/Src/stm32l4xx_hal_hcd.c ****       USBx_HC(ch_num)->HCCHAR = tmpreg;
1467:Drivers/STM32L4xx_HAL_Driver/Src/stm32l4xx_hal_hcd.c ****     }
1468:Drivers/STM32L4xx_HAL_Driver/Src/stm32l4xx_hal_hcd.c ****     else
1469:Drivers/STM32L4xx_HAL_Driver/Src/stm32l4xx_hal_hcd.c ****     {
1470:Drivers/STM32L4xx_HAL_Driver/Src/stm32l4xx_hal_hcd.c ****       /* ... */
1471:Drivers/STM32L4xx_HAL_Driver/Src/stm32l4xx_hal_hcd.c ****     }
1472:Drivers/STM32L4xx_HAL_Driver/Src/stm32l4xx_hal_hcd.c **** 
1473:Drivers/STM32L4xx_HAL_Driver/Src/stm32l4xx_hal_hcd.c ****     __HAL_HCD_CLEAR_HC_INT(ch_num, USB_OTG_HCINT_CHH);
1474:Drivers/STM32L4xx_HAL_Driver/Src/stm32l4xx_hal_hcd.c ****     HAL_HCD_HC_NotifyURBChange_Callback(hhcd, (uint8_t)ch_num, hhcd->hc[ch_num].urb_state);
1475:Drivers/STM32L4xx_HAL_Driver/Src/stm32l4xx_hal_hcd.c ****   }
1476:Drivers/STM32L4xx_HAL_Driver/Src/stm32l4xx_hal_hcd.c ****   else
1477:Drivers/STM32L4xx_HAL_Driver/Src/stm32l4xx_hal_hcd.c ****   {
1478:Drivers/STM32L4xx_HAL_Driver/Src/stm32l4xx_hal_hcd.c ****     /* ... */
1479:Drivers/STM32L4xx_HAL_Driver/Src/stm32l4xx_hal_hcd.c ****   }
1480:Drivers/STM32L4xx_HAL_Driver/Src/stm32l4xx_hal_hcd.c **** }
1481:Drivers/STM32L4xx_HAL_Driver/Src/stm32l4xx_hal_hcd.c **** 
1482:Drivers/STM32L4xx_HAL_Driver/Src/stm32l4xx_hal_hcd.c **** /**
1483:Drivers/STM32L4xx_HAL_Driver/Src/stm32l4xx_hal_hcd.c ****   * @brief  Handle Rx Queue Level interrupt requests.
1484:Drivers/STM32L4xx_HAL_Driver/Src/stm32l4xx_hal_hcd.c ****   * @param  hhcd HCD handle
1485:Drivers/STM32L4xx_HAL_Driver/Src/stm32l4xx_hal_hcd.c ****   * @retval none
1486:Drivers/STM32L4xx_HAL_Driver/Src/stm32l4xx_hal_hcd.c ****   */
1487:Drivers/STM32L4xx_HAL_Driver/Src/stm32l4xx_hal_hcd.c **** static void HCD_RXQLVL_IRQHandler(HCD_HandleTypeDef *hhcd)
1488:Drivers/STM32L4xx_HAL_Driver/Src/stm32l4xx_hal_hcd.c **** {
  27              		.loc 1 1488 0
  28              		.cfi_startproc
  29              		@ args = 0, pretend = 0, frame = 0
  30              		@ frame_needed = 0, uses_anonymous_args = 0
  31              	.LVL0:
  32 0000 F8B5     		push	{r3, r4, r5, r6, r7, lr}
  33              	.LCFI0:
  34              		.cfi_def_cfa_offset 24
  35              		.cfi_offset 3, -24
  36              		.cfi_offset 4, -20
  37              		.cfi_offset 5, -16
  38              		.cfi_offset 6, -12
  39              		.cfi_offset 7, -8
  40              		.cfi_offset 14, -4
1489:Drivers/STM32L4xx_HAL_Driver/Src/stm32l4xx_hal_hcd.c ****   USB_OTG_GlobalTypeDef *USBx = hhcd->Instance;
  41              		.loc 1 1489 0
  42 0002 0668     		ldr	r6, [r0]
  43              	.LVL1:
1490:Drivers/STM32L4xx_HAL_Driver/Src/stm32l4xx_hal_hcd.c ****   uint32_t USBx_BASE = (uint32_t)USBx;
1491:Drivers/STM32L4xx_HAL_Driver/Src/stm32l4xx_hal_hcd.c ****   uint32_t pktsts;
1492:Drivers/STM32L4xx_HAL_Driver/Src/stm32l4xx_hal_hcd.c ****   uint32_t pktcnt;
1493:Drivers/STM32L4xx_HAL_Driver/Src/stm32l4xx_hal_hcd.c ****   uint32_t temp;
1494:Drivers/STM32L4xx_HAL_Driver/Src/stm32l4xx_hal_hcd.c ****   uint32_t tmpreg;
1495:Drivers/STM32L4xx_HAL_Driver/Src/stm32l4xx_hal_hcd.c ****   uint32_t ch_num;
1496:Drivers/STM32L4xx_HAL_Driver/Src/stm32l4xx_hal_hcd.c **** 
1497:Drivers/STM32L4xx_HAL_Driver/Src/stm32l4xx_hal_hcd.c ****   temp = hhcd->Instance->GRXSTSP;
ARM GAS  /tmp/cckZR06T.s 			page 28


  44              		.loc 1 1497 0
  45 0004 346A     		ldr	r4, [r6, #32]
  46              	.LVL2:
1498:Drivers/STM32L4xx_HAL_Driver/Src/stm32l4xx_hal_hcd.c ****   ch_num = temp & USB_OTG_GRXSTSP_EPNUM;
  47              		.loc 1 1498 0
  48 0006 04F00F07 		and	r7, r4, #15
  49              	.LVL3:
1499:Drivers/STM32L4xx_HAL_Driver/Src/stm32l4xx_hal_hcd.c ****   pktsts = (temp & USB_OTG_GRXSTSP_PKTSTS) >> 17;
  50              		.loc 1 1499 0
  51 000a C4F34343 		ubfx	r3, r4, #17, #4
  52              	.LVL4:
1500:Drivers/STM32L4xx_HAL_Driver/Src/stm32l4xx_hal_hcd.c ****   pktcnt = (temp & USB_OTG_GRXSTSP_BCNT) >> 4;
  53              		.loc 1 1500 0
  54 000e C4F30A14 		ubfx	r4, r4, #4, #11
  55              	.LVL5:
1501:Drivers/STM32L4xx_HAL_Driver/Src/stm32l4xx_hal_hcd.c **** 
1502:Drivers/STM32L4xx_HAL_Driver/Src/stm32l4xx_hal_hcd.c ****   switch (pktsts)
  56              		.loc 1 1502 0
  57 0012 022B     		cmp	r3, #2
  58 0014 2ED1     		bne	.L1
1503:Drivers/STM32L4xx_HAL_Driver/Src/stm32l4xx_hal_hcd.c ****   {
1504:Drivers/STM32L4xx_HAL_Driver/Src/stm32l4xx_hal_hcd.c ****     case GRXSTS_PKTSTS_IN:
1505:Drivers/STM32L4xx_HAL_Driver/Src/stm32l4xx_hal_hcd.c ****       /* Read the data into the host buffer. */
1506:Drivers/STM32L4xx_HAL_Driver/Src/stm32l4xx_hal_hcd.c ****       if ((pktcnt > 0U) && (hhcd->hc[ch_num].xfer_buff != (void *)0))
  59              		.loc 1 1506 0
  60 0016 6CB3     		cbz	r4, .L1
  61              		.loc 1 1506 0 is_stmt 0 discriminator 1
  62 0018 07EB8702 		add	r2, r7, r7, lsl #2
  63 001c D300     		lsls	r3, r2, #3
  64              	.LVL6:
  65 001e 0344     		add	r3, r3, r0
  66 0020 596C     		ldr	r1, [r3, #68]
  67 0022 39B3     		cbz	r1, .L1
  68 0024 0546     		mov	r5, r0
1507:Drivers/STM32L4xx_HAL_Driver/Src/stm32l4xx_hal_hcd.c ****       {
1508:Drivers/STM32L4xx_HAL_Driver/Src/stm32l4xx_hal_hcd.c ****         (void)USB_ReadPacket(hhcd->Instance, hhcd->hc[ch_num].xfer_buff, (uint16_t)pktcnt);
  69              		.loc 1 1508 0 is_stmt 1
  70 0026 2246     		mov	r2, r4
  71 0028 3046     		mov	r0, r6
  72              	.LVL7:
  73 002a FFF7FEFF 		bl	USB_ReadPacket
  74              	.LVL8:
1509:Drivers/STM32L4xx_HAL_Driver/Src/stm32l4xx_hal_hcd.c **** 
1510:Drivers/STM32L4xx_HAL_Driver/Src/stm32l4xx_hal_hcd.c ****         /*manage multiple Xfer */
1511:Drivers/STM32L4xx_HAL_Driver/Src/stm32l4xx_hal_hcd.c ****         hhcd->hc[ch_num].xfer_buff += pktcnt;
  75              		.loc 1 1511 0
  76 002e BA00     		lsls	r2, r7, #2
  77 0030 3A44     		add	r2, r2, r7
  78 0032 D300     		lsls	r3, r2, #3
  79 0034 2B44     		add	r3, r3, r5
  80 0036 5A6C     		ldr	r2, [r3, #68]
  81 0038 2244     		add	r2, r2, r4
  82 003a 5A64     		str	r2, [r3, #68]
1512:Drivers/STM32L4xx_HAL_Driver/Src/stm32l4xx_hal_hcd.c ****         hhcd->hc[ch_num].xfer_count  += pktcnt;
  83              		.loc 1 1512 0
  84 003c DA6C     		ldr	r2, [r3, #76]
  85 003e 2244     		add	r2, r2, r4
ARM GAS  /tmp/cckZR06T.s 			page 29


  86 0040 DA64     		str	r2, [r3, #76]
1513:Drivers/STM32L4xx_HAL_Driver/Src/stm32l4xx_hal_hcd.c **** 
1514:Drivers/STM32L4xx_HAL_Driver/Src/stm32l4xx_hal_hcd.c ****         if ((USBx_HC(ch_num)->HCTSIZ & USB_OTG_HCTSIZ_PKTCNT) > 0U)
  87              		.loc 1 1514 0
  88 0042 06EB4713 		add	r3, r6, r7, lsl #5
  89 0046 D3F81015 		ldr	r1, [r3, #1296]
  90 004a 0B4A     		ldr	r2, .L5
  91 004c 0A40     		ands	r2, r2, r1
  92 004e 8AB1     		cbz	r2, .L1
1515:Drivers/STM32L4xx_HAL_Driver/Src/stm32l4xx_hal_hcd.c ****         {
1516:Drivers/STM32L4xx_HAL_Driver/Src/stm32l4xx_hal_hcd.c ****           /* re-activate the channel when more packets are expected */
1517:Drivers/STM32L4xx_HAL_Driver/Src/stm32l4xx_hal_hcd.c ****           tmpreg = USBx_HC(ch_num)->HCCHAR;
  93              		.loc 1 1517 0
  94 0050 D3F80025 		ldr	r2, [r3, #1280]
  95              	.LVL9:
1518:Drivers/STM32L4xx_HAL_Driver/Src/stm32l4xx_hal_hcd.c ****           tmpreg &= ~USB_OTG_HCCHAR_CHDIS;
  96              		.loc 1 1518 0
  97 0054 22F08042 		bic	r2, r2, #1073741824
  98              	.LVL10:
1519:Drivers/STM32L4xx_HAL_Driver/Src/stm32l4xx_hal_hcd.c ****           tmpreg |= USB_OTG_HCCHAR_CHENA;
  99              		.loc 1 1519 0
 100 0058 42F00042 		orr	r2, r2, #-2147483648
 101              	.LVL11:
1520:Drivers/STM32L4xx_HAL_Driver/Src/stm32l4xx_hal_hcd.c ****           USBx_HC(ch_num)->HCCHAR = tmpreg;
 102              		.loc 1 1520 0
 103 005c C3F80025 		str	r2, [r3, #1280]
1521:Drivers/STM32L4xx_HAL_Driver/Src/stm32l4xx_hal_hcd.c ****           hhcd->hc[ch_num].toggle_in ^= 1U;
 104              		.loc 1 1521 0
 105 0060 BB00     		lsls	r3, r7, #2
 106 0062 D919     		adds	r1, r3, r7
 107 0064 CA00     		lsls	r2, r1, #3
 108              	.LVL12:
 109 0066 2A44     		add	r2, r2, r5
 110 0068 92F85030 		ldrb	r3, [r2, #80]	@ zero_extendqisi2
 111 006c 83F00103 		eor	r3, r3, #1
 112 0070 82F85030 		strb	r3, [r2, #80]
 113              	.LVL13:
 114              	.L1:
1522:Drivers/STM32L4xx_HAL_Driver/Src/stm32l4xx_hal_hcd.c ****         }
1523:Drivers/STM32L4xx_HAL_Driver/Src/stm32l4xx_hal_hcd.c ****       }
1524:Drivers/STM32L4xx_HAL_Driver/Src/stm32l4xx_hal_hcd.c ****       break;
1525:Drivers/STM32L4xx_HAL_Driver/Src/stm32l4xx_hal_hcd.c **** 
1526:Drivers/STM32L4xx_HAL_Driver/Src/stm32l4xx_hal_hcd.c ****     case GRXSTS_PKTSTS_DATA_TOGGLE_ERR:
1527:Drivers/STM32L4xx_HAL_Driver/Src/stm32l4xx_hal_hcd.c ****       break;
1528:Drivers/STM32L4xx_HAL_Driver/Src/stm32l4xx_hal_hcd.c **** 
1529:Drivers/STM32L4xx_HAL_Driver/Src/stm32l4xx_hal_hcd.c ****     case GRXSTS_PKTSTS_IN_XFER_COMP:
1530:Drivers/STM32L4xx_HAL_Driver/Src/stm32l4xx_hal_hcd.c ****     case GRXSTS_PKTSTS_CH_HALTED:
1531:Drivers/STM32L4xx_HAL_Driver/Src/stm32l4xx_hal_hcd.c ****     default:
1532:Drivers/STM32L4xx_HAL_Driver/Src/stm32l4xx_hal_hcd.c ****       break;
1533:Drivers/STM32L4xx_HAL_Driver/Src/stm32l4xx_hal_hcd.c ****   }
1534:Drivers/STM32L4xx_HAL_Driver/Src/stm32l4xx_hal_hcd.c **** }
 115              		.loc 1 1534 0
 116 0074 F8BD     		pop	{r3, r4, r5, r6, r7, pc}
 117              	.LVL14:
 118              	.L6:
 119 0076 00BF     		.align	2
 120              	.L5:
ARM GAS  /tmp/cckZR06T.s 			page 30


 121 0078 0000F81F 		.word	536346624
 122              		.cfi_endproc
 123              	.LFE148:
 125              		.section	.text.HAL_HCD_HC_Init,"ax",%progbits
 126              		.align	1
 127              		.global	HAL_HCD_HC_Init
 128              		.syntax unified
 129              		.thumb
 130              		.thumb_func
 131              		.fpu fpv4-sp-d16
 133              	HAL_HCD_HC_Init:
 134              	.LFB124:
 211:Drivers/STM32L4xx_HAL_Driver/Src/stm32l4xx_hal_hcd.c ****   HAL_StatusTypeDef status;
 135              		.loc 1 211 0
 136              		.cfi_startproc
 137              		@ args = 12, pretend = 0, frame = 0
 138              		@ frame_needed = 0, uses_anonymous_args = 0
 139              	.LVL15:
 140 0000 F0B5     		push	{r4, r5, r6, r7, lr}
 141              	.LCFI1:
 142              		.cfi_def_cfa_offset 20
 143              		.cfi_offset 4, -20
 144              		.cfi_offset 5, -16
 145              		.cfi_offset 6, -12
 146              		.cfi_offset 7, -8
 147              		.cfi_offset 14, -4
 148 0002 85B0     		sub	sp, sp, #20
 149              	.LCFI2:
 150              		.cfi_def_cfa_offset 40
 151 0004 9DF82850 		ldrb	r5, [sp, #40]	@ zero_extendqisi2
 152 0008 9DF82C60 		ldrb	r6, [sp, #44]	@ zero_extendqisi2
 153 000c BDF83070 		ldrh	r7, [sp, #48]
 214:Drivers/STM32L4xx_HAL_Driver/Src/stm32l4xx_hal_hcd.c ****   hhcd->hc[ch_num].do_ping = 0U;
 154              		.loc 1 214 0
 155 0010 90F8B842 		ldrb	r4, [r0, #696]	@ zero_extendqisi2
 156 0014 012C     		cmp	r4, #1
 157 0016 41D0     		beq	.L11
 214:Drivers/STM32L4xx_HAL_Driver/Src/stm32l4xx_hal_hcd.c ****   hhcd->hc[ch_num].do_ping = 0U;
 158              		.loc 1 214 0 is_stmt 0 discriminator 2
 159 0018 0124     		movs	r4, #1
 160 001a 80F8B842 		strb	r4, [r0, #696]
 215:Drivers/STM32L4xx_HAL_Driver/Src/stm32l4xx_hal_hcd.c ****   hhcd->hc[ch_num].dev_addr = dev_address;
 161              		.loc 1 215 0 is_stmt 1 discriminator 2
 162 001e 4FEA810C 		lsl	ip, r1, #2
 163 0022 8C44     		add	ip, ip, r1
 164 0024 4FEACC04 		lsl	r4, ip, #3
 165 0028 0444     		add	r4, r4, r0
 166 002a 4FF0000C 		mov	ip, #0
 167 002e 84F83DC0 		strb	ip, [r4, #61]
 216:Drivers/STM32L4xx_HAL_Driver/Src/stm32l4xx_hal_hcd.c ****   hhcd->hc[ch_num].max_packet = mps;
 168              		.loc 1 216 0 discriminator 2
 169 0032 84F83830 		strb	r3, [r4, #56]
 217:Drivers/STM32L4xx_HAL_Driver/Src/stm32l4xx_hal_hcd.c ****   hhcd->hc[ch_num].ch_num = ch_num;
 170              		.loc 1 217 0 discriminator 2
 171 0036 A4F84070 		strh	r7, [r4, #64]	@ movhi
 218:Drivers/STM32L4xx_HAL_Driver/Src/stm32l4xx_hal_hcd.c ****   hhcd->hc[ch_num].ep_type = ep_type;
 172              		.loc 1 218 0 discriminator 2
ARM GAS  /tmp/cckZR06T.s 			page 31


 173 003a 84F83910 		strb	r1, [r4, #57]
 219:Drivers/STM32L4xx_HAL_Driver/Src/stm32l4xx_hal_hcd.c ****   hhcd->hc[ch_num].ep_num = epnum & 0x7FU;
 174              		.loc 1 219 0 discriminator 2
 175 003e 84F83F60 		strb	r6, [r4, #63]
 220:Drivers/STM32L4xx_HAL_Driver/Src/stm32l4xx_hal_hcd.c **** 
 176              		.loc 1 220 0 discriminator 2
 177 0042 02F07F0C 		and	ip, r2, #127
 178 0046 84F83AC0 		strb	ip, [r4, #58]
 222:Drivers/STM32L4xx_HAL_Driver/Src/stm32l4xx_hal_hcd.c ****   {
 179              		.loc 1 222 0 discriminator 2
 180 004a 12F0800F 		tst	r2, #128
 181 004e 1BD1     		bne	.L13
 228:Drivers/STM32L4xx_HAL_Driver/Src/stm32l4xx_hal_hcd.c ****   }
 182              		.loc 1 228 0
 183 0050 01EB810C 		add	ip, r1, r1, lsl #2
 184 0054 4FEACC04 		lsl	r4, ip, #3
 185 0058 0444     		add	r4, r4, r0
 186 005a 4FF0000C 		mov	ip, #0
 187 005e 84F83BC0 		strb	ip, [r4, #59]
 188              	.L10:
 189 0062 0446     		mov	r4, r0
 231:Drivers/STM32L4xx_HAL_Driver/Src/stm32l4xx_hal_hcd.c **** 
 190              		.loc 1 231 0
 191 0064 01EB810C 		add	ip, r1, r1, lsl #2
 192 0068 4FEACC00 		lsl	r0, ip, #3
 193              	.LVL16:
 194 006c 2044     		add	r0, r0, r4
 195 006e 80F83C50 		strb	r5, [r0, #60]
 233:Drivers/STM32L4xx_HAL_Driver/Src/stm32l4xx_hal_hcd.c ****                         ch_num,
 196              		.loc 1 233 0
 197 0072 0297     		str	r7, [sp, #8]
 198 0074 0196     		str	r6, [sp, #4]
 199 0076 0095     		str	r5, [sp]
 200 0078 2068     		ldr	r0, [r4]
 201 007a FFF7FEFF 		bl	USB_HC_Init
 202              	.LVL17:
 240:Drivers/STM32L4xx_HAL_Driver/Src/stm32l4xx_hal_hcd.c **** 
 203              		.loc 1 240 0
 204 007e 0023     		movs	r3, #0
 205 0080 84F8B832 		strb	r3, [r4, #696]
 206              	.LVL18:
 207              	.L8:
 243:Drivers/STM32L4xx_HAL_Driver/Src/stm32l4xx_hal_hcd.c **** 
 208              		.loc 1 243 0
 209 0084 05B0     		add	sp, sp, #20
 210              	.LCFI3:
 211              		.cfi_remember_state
 212              		.cfi_def_cfa_offset 20
 213              		@ sp needed
 214 0086 F0BD     		pop	{r4, r5, r6, r7, pc}
 215              	.LVL19:
 216              	.L13:
 217              	.LCFI4:
 218              		.cfi_restore_state
 224:Drivers/STM32L4xx_HAL_Driver/Src/stm32l4xx_hal_hcd.c ****   }
 219              		.loc 1 224 0
 220 0088 01EB810C 		add	ip, r1, r1, lsl #2
ARM GAS  /tmp/cckZR06T.s 			page 32


 221 008c 4FEACC04 		lsl	r4, ip, #3
 222 0090 0444     		add	r4, r4, r0
 223 0092 4FF0010C 		mov	ip, #1
 224 0096 84F83BC0 		strb	ip, [r4, #59]
 225 009a E2E7     		b	.L10
 226              	.L11:
 214:Drivers/STM32L4xx_HAL_Driver/Src/stm32l4xx_hal_hcd.c ****   hhcd->hc[ch_num].do_ping = 0U;
 227              		.loc 1 214 0
 228 009c 0220     		movs	r0, #2
 229              	.LVL20:
 230 009e F1E7     		b	.L8
 231              		.cfi_endproc
 232              	.LFE124:
 234              		.section	.text.HAL_HCD_HC_Halt,"ax",%progbits
 235              		.align	1
 236              		.global	HAL_HCD_HC_Halt
 237              		.syntax unified
 238              		.thumb
 239              		.thumb_func
 240              		.fpu fpv4-sp-d16
 242              	HAL_HCD_HC_Halt:
 243              	.LFB125:
 253:Drivers/STM32L4xx_HAL_Driver/Src/stm32l4xx_hal_hcd.c ****   HAL_StatusTypeDef status = HAL_OK;
 244              		.loc 1 253 0
 245              		.cfi_startproc
 246              		@ args = 0, pretend = 0, frame = 0
 247              		@ frame_needed = 0, uses_anonymous_args = 0
 248              	.LVL21:
 256:Drivers/STM32L4xx_HAL_Driver/Src/stm32l4xx_hal_hcd.c ****   (void)USB_HC_Halt(hhcd->Instance, (uint8_t)ch_num);
 249              		.loc 1 256 0
 250 0000 90F8B832 		ldrb	r3, [r0, #696]	@ zero_extendqisi2
 251 0004 012B     		cmp	r3, #1
 252 0006 0BD0     		beq	.L16
 253:Drivers/STM32L4xx_HAL_Driver/Src/stm32l4xx_hal_hcd.c ****   HAL_StatusTypeDef status = HAL_OK;
 253              		.loc 1 253 0 discriminator 2
 254 0008 10B5     		push	{r4, lr}
 255              	.LCFI5:
 256              		.cfi_def_cfa_offset 8
 257              		.cfi_offset 4, -8
 258              		.cfi_offset 14, -4
 259 000a 0446     		mov	r4, r0
 256:Drivers/STM32L4xx_HAL_Driver/Src/stm32l4xx_hal_hcd.c ****   (void)USB_HC_Halt(hhcd->Instance, (uint8_t)ch_num);
 260              		.loc 1 256 0 discriminator 2
 261 000c 0123     		movs	r3, #1
 262 000e 80F8B832 		strb	r3, [r0, #696]
 257:Drivers/STM32L4xx_HAL_Driver/Src/stm32l4xx_hal_hcd.c ****   __HAL_UNLOCK(hhcd);
 263              		.loc 1 257 0 discriminator 2
 264 0012 0068     		ldr	r0, [r0]
 265              	.LVL22:
 266 0014 FFF7FEFF 		bl	USB_HC_Halt
 267              	.LVL23:
 258:Drivers/STM32L4xx_HAL_Driver/Src/stm32l4xx_hal_hcd.c **** 
 268              		.loc 1 258 0 discriminator 2
 269 0018 0020     		movs	r0, #0
 270 001a 84F8B802 		strb	r0, [r4, #696]
 261:Drivers/STM32L4xx_HAL_Driver/Src/stm32l4xx_hal_hcd.c **** 
 271              		.loc 1 261 0 discriminator 2
ARM GAS  /tmp/cckZR06T.s 			page 33


 272 001e 10BD     		pop	{r4, pc}
 273              	.LVL24:
 274              	.L16:
 275              	.LCFI6:
 276              		.cfi_def_cfa_offset 0
 277              		.cfi_restore 4
 278              		.cfi_restore 14
 256:Drivers/STM32L4xx_HAL_Driver/Src/stm32l4xx_hal_hcd.c ****   (void)USB_HC_Halt(hhcd->Instance, (uint8_t)ch_num);
 279              		.loc 1 256 0
 280 0020 0220     		movs	r0, #2
 281              	.LVL25:
 261:Drivers/STM32L4xx_HAL_Driver/Src/stm32l4xx_hal_hcd.c **** 
 282              		.loc 1 261 0
 283 0022 7047     		bx	lr
 284              		.cfi_endproc
 285              	.LFE125:
 287              		.section	.text.HAL_HCD_MspInit,"ax",%progbits
 288              		.align	1
 289              		.weak	HAL_HCD_MspInit
 290              		.syntax unified
 291              		.thumb
 292              		.thumb_func
 293              		.fpu fpv4-sp-d16
 295              	HAL_HCD_MspInit:
 296              	.LFB127:
 304:Drivers/STM32L4xx_HAL_Driver/Src/stm32l4xx_hal_hcd.c ****   /* Prevent unused argument(s) compilation warning */
 297              		.loc 1 304 0
 298              		.cfi_startproc
 299              		@ args = 0, pretend = 0, frame = 0
 300              		@ frame_needed = 0, uses_anonymous_args = 0
 301              		@ link register save eliminated.
 302              	.LVL26:
 311:Drivers/STM32L4xx_HAL_Driver/Src/stm32l4xx_hal_hcd.c **** 
 303              		.loc 1 311 0
 304 0000 7047     		bx	lr
 305              		.cfi_endproc
 306              	.LFE127:
 308              		.section	.text.HAL_HCD_Init,"ax",%progbits
 309              		.align	1
 310              		.global	HAL_HCD_Init
 311              		.syntax unified
 312              		.thumb
 313              		.thumb_func
 314              		.fpu fpv4-sp-d16
 316              	HAL_HCD_Init:
 317              	.LFB123:
 125:Drivers/STM32L4xx_HAL_Driver/Src/stm32l4xx_hal_hcd.c ****   /* Check the HCD handle allocation */
 318              		.loc 1 125 0
 319              		.cfi_startproc
 320              		@ args = 0, pretend = 0, frame = 0
 321              		@ frame_needed = 0, uses_anonymous_args = 0
 322              	.LVL27:
 127:Drivers/STM32L4xx_HAL_Driver/Src/stm32l4xx_hal_hcd.c ****   {
 323              		.loc 1 127 0
 324 0000 0028     		cmp	r0, #0
 325 0002 3DD0     		beq	.L25
 125:Drivers/STM32L4xx_HAL_Driver/Src/stm32l4xx_hal_hcd.c ****   /* Check the HCD handle allocation */
ARM GAS  /tmp/cckZR06T.s 			page 34


 326              		.loc 1 125 0
 327 0004 F0B5     		push	{r4, r5, r6, r7, lr}
 328              	.LCFI7:
 329              		.cfi_def_cfa_offset 20
 330              		.cfi_offset 4, -20
 331              		.cfi_offset 5, -16
 332              		.cfi_offset 6, -12
 333              		.cfi_offset 7, -8
 334              		.cfi_offset 14, -4
 335 0006 8BB0     		sub	sp, sp, #44
 336              	.LCFI8:
 337              		.cfi_def_cfa_offset 64
 338 0008 0646     		mov	r6, r0
 135:Drivers/STM32L4xx_HAL_Driver/Src/stm32l4xx_hal_hcd.c ****   {
 339              		.loc 1 135 0
 340 000a 90F8B932 		ldrb	r3, [r0, #697]	@ zero_extendqisi2
 341 000e 93B3     		cbz	r3, .L30
 342              	.LVL28:
 343              	.L24:
 161:Drivers/STM32L4xx_HAL_Driver/Src/stm32l4xx_hal_hcd.c **** 
 344              		.loc 1 161 0
 345 0010 0323     		movs	r3, #3
 346 0012 86F8B932 		strb	r3, [r6, #697]
 164:Drivers/STM32L4xx_HAL_Driver/Src/stm32l4xx_hal_hcd.c **** 
 347              		.loc 1 164 0
 348 0016 3068     		ldr	r0, [r6]
 349 0018 FFF7FEFF 		bl	USB_DisableGlobalInt
 350              	.LVL29:
 167:Drivers/STM32L4xx_HAL_Driver/Src/stm32l4xx_hal_hcd.c **** 
 351              		.loc 1 167 0
 352 001c 3446     		mov	r4, r6
 353 001e 54F810CB 		ldr	ip, [r4], #16
 354 0022 6D46     		mov	r5, sp
 355 0024 0FCC     		ldmia	r4!, {r0, r1, r2, r3}
 356 0026 0FC5     		stmia	r5!, {r0, r1, r2, r3}
 357 0028 0FCC     		ldmia	r4!, {r0, r1, r2, r3}
 358 002a 0FC5     		stmia	r5!, {r0, r1, r2, r3}
 359 002c 94E80300 		ldm	r4, {r0, r1}
 360 0030 85E80300 		stm	r5, {r0, r1}
 361 0034 371D     		adds	r7, r6, #4
 362 0036 97E80E00 		ldm	r7, {r1, r2, r3}
 363 003a 6046     		mov	r0, ip
 364 003c FFF7FEFF 		bl	USB_CoreInit
 365              	.LVL30:
 170:Drivers/STM32L4xx_HAL_Driver/Src/stm32l4xx_hal_hcd.c **** 
 366              		.loc 1 170 0
 367 0040 0121     		movs	r1, #1
 368 0042 3068     		ldr	r0, [r6]
 369 0044 FFF7FEFF 		bl	USB_SetCurrentMode
 370              	.LVL31:
 173:Drivers/STM32L4xx_HAL_Driver/Src/stm32l4xx_hal_hcd.c **** 
 371              		.loc 1 173 0
 372 0048 3446     		mov	r4, r6
 373 004a 54F810CB 		ldr	ip, [r4], #16
 374 004e 6D46     		mov	r5, sp
 375 0050 0FCC     		ldmia	r4!, {r0, r1, r2, r3}
 376 0052 0FC5     		stmia	r5!, {r0, r1, r2, r3}
ARM GAS  /tmp/cckZR06T.s 			page 35


 377 0054 0FCC     		ldmia	r4!, {r0, r1, r2, r3}
 378 0056 0FC5     		stmia	r5!, {r0, r1, r2, r3}
 379 0058 94E80300 		ldm	r4, {r0, r1}
 380 005c 85E80300 		stm	r5, {r0, r1}
 381 0060 97E80E00 		ldm	r7, {r1, r2, r3}
 382 0064 6046     		mov	r0, ip
 383 0066 FFF7FEFF 		bl	USB_HostInit
 384              	.LVL32:
 175:Drivers/STM32L4xx_HAL_Driver/Src/stm32l4xx_hal_hcd.c **** 
 385              		.loc 1 175 0
 386 006a 0123     		movs	r3, #1
 387 006c 86F8B932 		strb	r3, [r6, #697]
 177:Drivers/STM32L4xx_HAL_Driver/Src/stm32l4xx_hal_hcd.c **** }
 388              		.loc 1 177 0
 389 0070 0020     		movs	r0, #0
 178:Drivers/STM32L4xx_HAL_Driver/Src/stm32l4xx_hal_hcd.c **** 
 390              		.loc 1 178 0
 391 0072 0BB0     		add	sp, sp, #44
 392              	.LCFI9:
 393              		.cfi_remember_state
 394              		.cfi_def_cfa_offset 20
 395              		@ sp needed
 396 0074 F0BD     		pop	{r4, r5, r6, r7, pc}
 397              	.LVL33:
 398              	.L30:
 399              	.LCFI10:
 400              		.cfi_restore_state
 138:Drivers/STM32L4xx_HAL_Driver/Src/stm32l4xx_hal_hcd.c **** 
 401              		.loc 1 138 0
 402 0076 80F8B832 		strb	r3, [r0, #696]
 157:Drivers/STM32L4xx_HAL_Driver/Src/stm32l4xx_hal_hcd.c **** #endif /* (USE_HAL_HCD_REGISTER_CALLBACKS) */
 403              		.loc 1 157 0
 404 007a FFF7FEFF 		bl	HAL_HCD_MspInit
 405              	.LVL34:
 406 007e C7E7     		b	.L24
 407              	.LVL35:
 408              	.L25:
 409              	.LCFI11:
 410              		.cfi_def_cfa_offset 0
 411              		.cfi_restore 4
 412              		.cfi_restore 5
 413              		.cfi_restore 6
 414              		.cfi_restore 7
 415              		.cfi_restore 14
 129:Drivers/STM32L4xx_HAL_Driver/Src/stm32l4xx_hal_hcd.c ****   }
 416              		.loc 1 129 0
 417 0080 0120     		movs	r0, #1
 418              	.LVL36:
 178:Drivers/STM32L4xx_HAL_Driver/Src/stm32l4xx_hal_hcd.c **** 
 419              		.loc 1 178 0
 420 0082 7047     		bx	lr
 421              		.cfi_endproc
 422              	.LFE123:
 424              		.section	.text.HAL_HCD_MspDeInit,"ax",%progbits
 425              		.align	1
 426              		.weak	HAL_HCD_MspDeInit
 427              		.syntax unified
ARM GAS  /tmp/cckZR06T.s 			page 36


 428              		.thumb
 429              		.thumb_func
 430              		.fpu fpv4-sp-d16
 432              	HAL_HCD_MspDeInit:
 433              	.LFB128:
 319:Drivers/STM32L4xx_HAL_Driver/Src/stm32l4xx_hal_hcd.c ****   /* Prevent unused argument(s) compilation warning */
 434              		.loc 1 319 0
 435              		.cfi_startproc
 436              		@ args = 0, pretend = 0, frame = 0
 437              		@ frame_needed = 0, uses_anonymous_args = 0
 438              		@ link register save eliminated.
 439              	.LVL37:
 326:Drivers/STM32L4xx_HAL_Driver/Src/stm32l4xx_hal_hcd.c **** 
 440              		.loc 1 326 0
 441 0000 7047     		bx	lr
 442              		.cfi_endproc
 443              	.LFE128:
 445              		.section	.text.HAL_HCD_DeInit,"ax",%progbits
 446              		.align	1
 447              		.global	HAL_HCD_DeInit
 448              		.syntax unified
 449              		.thumb
 450              		.thumb_func
 451              		.fpu fpv4-sp-d16
 453              	HAL_HCD_DeInit:
 454              	.LFB126:
 269:Drivers/STM32L4xx_HAL_Driver/Src/stm32l4xx_hal_hcd.c ****   /* Check the HCD handle allocation */
 455              		.loc 1 269 0
 456              		.cfi_startproc
 457              		@ args = 0, pretend = 0, frame = 0
 458              		@ frame_needed = 0, uses_anonymous_args = 0
 459              	.LVL38:
 271:Drivers/STM32L4xx_HAL_Driver/Src/stm32l4xx_hal_hcd.c ****   {
 460              		.loc 1 271 0
 461 0000 68B1     		cbz	r0, .L34
 269:Drivers/STM32L4xx_HAL_Driver/Src/stm32l4xx_hal_hcd.c ****   /* Check the HCD handle allocation */
 462              		.loc 1 269 0
 463 0002 10B5     		push	{r4, lr}
 464              	.LCFI12:
 465              		.cfi_def_cfa_offset 8
 466              		.cfi_offset 4, -8
 467              		.cfi_offset 14, -4
 468 0004 0446     		mov	r4, r0
 276:Drivers/STM32L4xx_HAL_Driver/Src/stm32l4xx_hal_hcd.c **** 
 469              		.loc 1 276 0
 470 0006 0323     		movs	r3, #3
 471 0008 80F8B932 		strb	r3, [r0, #697]
 288:Drivers/STM32L4xx_HAL_Driver/Src/stm32l4xx_hal_hcd.c **** #endif /* USE_HAL_HCD_REGISTER_CALLBACKS */
 472              		.loc 1 288 0
 473 000c FFF7FEFF 		bl	HAL_HCD_MspDeInit
 474              	.LVL39:
 291:Drivers/STM32L4xx_HAL_Driver/Src/stm32l4xx_hal_hcd.c **** 
 475              		.loc 1 291 0
 476 0010 2068     		ldr	r0, [r4]
 477 0012 FFF7FEFF 		bl	USB_DisableGlobalInt
 478              	.LVL40:
 293:Drivers/STM32L4xx_HAL_Driver/Src/stm32l4xx_hal_hcd.c **** 
ARM GAS  /tmp/cckZR06T.s 			page 37


 479              		.loc 1 293 0
 480 0016 0020     		movs	r0, #0
 481 0018 84F8B902 		strb	r0, [r4, #697]
 296:Drivers/STM32L4xx_HAL_Driver/Src/stm32l4xx_hal_hcd.c **** 
 482              		.loc 1 296 0
 483 001c 10BD     		pop	{r4, pc}
 484              	.LVL41:
 485              	.L34:
 486              	.LCFI13:
 487              		.cfi_def_cfa_offset 0
 488              		.cfi_restore 4
 489              		.cfi_restore 14
 273:Drivers/STM32L4xx_HAL_Driver/Src/stm32l4xx_hal_hcd.c ****   }
 490              		.loc 1 273 0
 491 001e 0120     		movs	r0, #1
 492              	.LVL42:
 296:Drivers/STM32L4xx_HAL_Driver/Src/stm32l4xx_hal_hcd.c **** 
 493              		.loc 1 296 0
 494 0020 7047     		bx	lr
 495              		.cfi_endproc
 496              	.LFE126:
 498              		.section	.text.HAL_HCD_HC_SubmitRequest,"ax",%progbits
 499              		.align	1
 500              		.global	HAL_HCD_HC_SubmitRequest
 501              		.syntax unified
 502              		.thumb
 503              		.thumb_func
 504              		.fpu fpv4-sp-d16
 506              	HAL_HCD_HC_SubmitRequest:
 507              	.LFB129:
 378:Drivers/STM32L4xx_HAL_Driver/Src/stm32l4xx_hal_hcd.c ****   UNUSED(do_ping);
 508              		.loc 1 378 0
 509              		.cfi_startproc
 510              		@ args = 16, pretend = 0, frame = 0
 511              		@ frame_needed = 0, uses_anonymous_args = 0
 512              	.LVL43:
 513 0000 F8B5     		push	{r3, r4, r5, r6, r7, lr}
 514              	.LCFI14:
 515              		.cfi_def_cfa_offset 24
 516              		.cfi_offset 3, -24
 517              		.cfi_offset 4, -20
 518              		.cfi_offset 5, -16
 519              		.cfi_offset 6, -12
 520              		.cfi_offset 7, -8
 521              		.cfi_offset 14, -4
 522 0002 9DF81870 		ldrb	r7, [sp, #24]	@ zero_extendqisi2
 523 0006 BDF82060 		ldrh	r6, [sp, #32]
 381:Drivers/STM32L4xx_HAL_Driver/Src/stm32l4xx_hal_hcd.c ****   hhcd->hc[ch_num].ep_type  = ep_type;
 524              		.loc 1 381 0
 525 000a 8D00     		lsls	r5, r1, #2
 526 000c 0D44     		add	r5, r5, r1
 527 000e EC00     		lsls	r4, r5, #3
 528 0010 0444     		add	r4, r4, r0
 529 0012 84F83B20 		strb	r2, [r4, #59]
 382:Drivers/STM32L4xx_HAL_Driver/Src/stm32l4xx_hal_hcd.c **** 
 530              		.loc 1 382 0
 531 0016 84F83F30 		strb	r3, [r4, #63]
ARM GAS  /tmp/cckZR06T.s 			page 38


 384:Drivers/STM32L4xx_HAL_Driver/Src/stm32l4xx_hal_hcd.c ****   {
 532              		.loc 1 384 0
 533 001a 6FB9     		cbnz	r7, .L40
 386:Drivers/STM32L4xx_HAL_Driver/Src/stm32l4xx_hal_hcd.c ****   }
 534              		.loc 1 386 0
 535 001c 01EB8105 		add	r5, r1, r1, lsl #2
 536 0020 EC00     		lsls	r4, r5, #3
 537 0022 0444     		add	r4, r4, r0
 538 0024 0325     		movs	r5, #3
 539 0026 84F84250 		strb	r5, [r4, #66]
 540              	.L41:
 394:Drivers/STM32L4xx_HAL_Driver/Src/stm32l4xx_hal_hcd.c ****   {
 541              		.loc 1 394 0
 542 002a 032B     		cmp	r3, #3
 543 002c 00F29680 		bhi	.L42
 544 0030 DFE803F0 		tbb	[pc, r3]
 545              	.L44:
 546 0034 0A       		.byte	(.L43-.L44)/2
 547 0035 8D       		.byte	(.L45-.L44)/2
 548 0036 2F       		.byte	(.L46-.L44)/2
 549 0037 5E       		.byte	(.L47-.L44)/2
 550              		.p2align 1
 551              	.L40:
 390:Drivers/STM32L4xx_HAL_Driver/Src/stm32l4xx_hal_hcd.c ****   }
 552              		.loc 1 390 0
 553 0038 01EB8105 		add	r5, r1, r1, lsl #2
 554 003c EC00     		lsls	r4, r5, #3
 555 003e 0444     		add	r4, r4, r0
 556 0040 0225     		movs	r5, #2
 557 0042 84F84250 		strb	r5, [r4, #66]
 558 0046 F0E7     		b	.L41
 559              	.L43:
 397:Drivers/STM32L4xx_HAL_Driver/Src/stm32l4xx_hal_hcd.c ****       {
 560              		.loc 1 397 0
 561 0048 012F     		cmp	r7, #1
 562 004a 40F08780 		bne	.L42
 397:Drivers/STM32L4xx_HAL_Driver/Src/stm32l4xx_hal_hcd.c ****       {
 563              		.loc 1 397 0 is_stmt 0 discriminator 1
 564 004e 002A     		cmp	r2, #0
 565 0050 40F08480 		bne	.L42
 399:Drivers/STM32L4xx_HAL_Driver/Src/stm32l4xx_hal_hcd.c ****         {
 566              		.loc 1 399 0 is_stmt 1
 567 0054 36B9     		cbnz	r6, .L48
 402:Drivers/STM32L4xx_HAL_Driver/Src/stm32l4xx_hal_hcd.c ****         }
 568              		.loc 1 402 0
 569 0056 01EB8102 		add	r2, r1, r1, lsl #2
 570              	.LVL44:
 571 005a D300     		lsls	r3, r2, #3
 572              	.LVL45:
 573 005c 0344     		add	r3, r3, r0
 574 005e 0122     		movs	r2, #1
 575 0060 83F85120 		strb	r2, [r3, #81]
 576              	.L48:
 406:Drivers/STM32L4xx_HAL_Driver/Src/stm32l4xx_hal_hcd.c ****         {
 577              		.loc 1 406 0
 578 0064 01EB8102 		add	r2, r1, r1, lsl #2
 579 0068 D300     		lsls	r3, r2, #3
ARM GAS  /tmp/cckZR06T.s 			page 39


 580 006a 0344     		add	r3, r3, r0
 581 006c 93F85130 		ldrb	r3, [r3, #81]	@ zero_extendqisi2
 582 0070 3BB9     		cbnz	r3, .L49
 409:Drivers/STM32L4xx_HAL_Driver/Src/stm32l4xx_hal_hcd.c ****         }
 583              		.loc 1 409 0
 584 0072 01EB8102 		add	r2, r1, r1, lsl #2
 585 0076 D300     		lsls	r3, r2, #3
 586 0078 0344     		add	r3, r3, r0
 587 007a 0022     		movs	r2, #0
 588 007c 83F84220 		strb	r2, [r3, #66]
 589 0080 6CE0     		b	.L42
 590              	.L49:
 414:Drivers/STM32L4xx_HAL_Driver/Src/stm32l4xx_hal_hcd.c ****         }
 591              		.loc 1 414 0
 592 0082 01EB8102 		add	r2, r1, r1, lsl #2
 593 0086 D300     		lsls	r3, r2, #3
 594 0088 0344     		add	r3, r3, r0
 595 008a 0222     		movs	r2, #2
 596 008c 83F84220 		strb	r2, [r3, #66]
 597 0090 64E0     		b	.L42
 598              	.LVL46:
 599              	.L46:
 420:Drivers/STM32L4xx_HAL_Driver/Src/stm32l4xx_hal_hcd.c ****       {
 600              		.loc 1 420 0
 601 0092 B2B9     		cbnz	r2, .L50
 423:Drivers/STM32L4xx_HAL_Driver/Src/stm32l4xx_hal_hcd.c ****         {
 602              		.loc 1 423 0
 603 0094 01EB8102 		add	r2, r1, r1, lsl #2
 604              	.LVL47:
 605 0098 D300     		lsls	r3, r2, #3
 606              	.LVL48:
 607 009a 0344     		add	r3, r3, r0
 608 009c 93F85130 		ldrb	r3, [r3, #81]	@ zero_extendqisi2
 609 00a0 3BB9     		cbnz	r3, .L51
 426:Drivers/STM32L4xx_HAL_Driver/Src/stm32l4xx_hal_hcd.c ****         }
 610              		.loc 1 426 0
 611 00a2 01EB8102 		add	r2, r1, r1, lsl #2
 612 00a6 D300     		lsls	r3, r2, #3
 613 00a8 0344     		add	r3, r3, r0
 614 00aa 0022     		movs	r2, #0
 615 00ac 83F84220 		strb	r2, [r3, #66]
 616 00b0 54E0     		b	.L42
 617              	.L51:
 431:Drivers/STM32L4xx_HAL_Driver/Src/stm32l4xx_hal_hcd.c ****         }
 618              		.loc 1 431 0
 619 00b2 01EB8102 		add	r2, r1, r1, lsl #2
 620 00b6 D300     		lsls	r3, r2, #3
 621 00b8 0344     		add	r3, r3, r0
 622 00ba 0222     		movs	r2, #2
 623 00bc 83F84220 		strb	r2, [r3, #66]
 624 00c0 4CE0     		b	.L42
 625              	.LVL49:
 626              	.L50:
 436:Drivers/STM32L4xx_HAL_Driver/Src/stm32l4xx_hal_hcd.c ****         {
 627              		.loc 1 436 0
 628 00c2 01EB8102 		add	r2, r1, r1, lsl #2
 629              	.LVL50:
ARM GAS  /tmp/cckZR06T.s 			page 40


 630 00c6 D300     		lsls	r3, r2, #3
 631              	.LVL51:
 632 00c8 0344     		add	r3, r3, r0
 633 00ca 93F85030 		ldrb	r3, [r3, #80]	@ zero_extendqisi2
 634 00ce 3BB9     		cbnz	r3, .L52
 438:Drivers/STM32L4xx_HAL_Driver/Src/stm32l4xx_hal_hcd.c ****         }
 635              		.loc 1 438 0
 636 00d0 01EB8102 		add	r2, r1, r1, lsl #2
 637 00d4 D300     		lsls	r3, r2, #3
 638 00d6 0344     		add	r3, r3, r0
 639 00d8 0022     		movs	r2, #0
 640 00da 83F84220 		strb	r2, [r3, #66]
 641 00de 3DE0     		b	.L42
 642              	.L52:
 442:Drivers/STM32L4xx_HAL_Driver/Src/stm32l4xx_hal_hcd.c ****         }
 643              		.loc 1 442 0
 644 00e0 01EB8102 		add	r2, r1, r1, lsl #2
 645 00e4 D300     		lsls	r3, r2, #3
 646 00e6 0344     		add	r3, r3, r0
 647 00e8 0222     		movs	r2, #2
 648 00ea 83F84220 		strb	r2, [r3, #66]
 649 00ee 35E0     		b	.L42
 650              	.LVL52:
 651              	.L47:
 448:Drivers/STM32L4xx_HAL_Driver/Src/stm32l4xx_hal_hcd.c ****       {
 652              		.loc 1 448 0
 653 00f0 B2B9     		cbnz	r2, .L53
 451:Drivers/STM32L4xx_HAL_Driver/Src/stm32l4xx_hal_hcd.c ****         {
 654              		.loc 1 451 0
 655 00f2 01EB8102 		add	r2, r1, r1, lsl #2
 656              	.LVL53:
 657 00f6 D300     		lsls	r3, r2, #3
 658              	.LVL54:
 659 00f8 0344     		add	r3, r3, r0
 660 00fa 93F85130 		ldrb	r3, [r3, #81]	@ zero_extendqisi2
 661 00fe 3BB9     		cbnz	r3, .L54
 454:Drivers/STM32L4xx_HAL_Driver/Src/stm32l4xx_hal_hcd.c ****         }
 662              		.loc 1 454 0
 663 0100 01EB8102 		add	r2, r1, r1, lsl #2
 664 0104 D300     		lsls	r3, r2, #3
 665 0106 0344     		add	r3, r3, r0
 666 0108 0022     		movs	r2, #0
 667 010a 83F84220 		strb	r2, [r3, #66]
 668 010e 25E0     		b	.L42
 669              	.L54:
 459:Drivers/STM32L4xx_HAL_Driver/Src/stm32l4xx_hal_hcd.c ****         }
 670              		.loc 1 459 0
 671 0110 01EB8102 		add	r2, r1, r1, lsl #2
 672 0114 D300     		lsls	r3, r2, #3
 673 0116 0344     		add	r3, r3, r0
 674 0118 0222     		movs	r2, #2
 675 011a 83F84220 		strb	r2, [r3, #66]
 676 011e 1DE0     		b	.L42
 677              	.LVL55:
 678              	.L53:
 464:Drivers/STM32L4xx_HAL_Driver/Src/stm32l4xx_hal_hcd.c ****         {
 679              		.loc 1 464 0
ARM GAS  /tmp/cckZR06T.s 			page 41


 680 0120 01EB8102 		add	r2, r1, r1, lsl #2
 681              	.LVL56:
 682 0124 D300     		lsls	r3, r2, #3
 683              	.LVL57:
 684 0126 0344     		add	r3, r3, r0
 685 0128 93F85030 		ldrb	r3, [r3, #80]	@ zero_extendqisi2
 686 012c 3BB9     		cbnz	r3, .L55
 466:Drivers/STM32L4xx_HAL_Driver/Src/stm32l4xx_hal_hcd.c ****         }
 687              		.loc 1 466 0
 688 012e 01EB8102 		add	r2, r1, r1, lsl #2
 689 0132 D300     		lsls	r3, r2, #3
 690 0134 0344     		add	r3, r3, r0
 691 0136 0022     		movs	r2, #0
 692 0138 83F84220 		strb	r2, [r3, #66]
 693 013c 0EE0     		b	.L42
 694              	.L55:
 470:Drivers/STM32L4xx_HAL_Driver/Src/stm32l4xx_hal_hcd.c ****         }
 695              		.loc 1 470 0
 696 013e 01EB8102 		add	r2, r1, r1, lsl #2
 697 0142 D300     		lsls	r3, r2, #3
 698 0144 0344     		add	r3, r3, r0
 699 0146 0222     		movs	r2, #2
 700 0148 83F84220 		strb	r2, [r3, #66]
 701 014c 06E0     		b	.L42
 702              	.LVL58:
 703              	.L45:
 476:Drivers/STM32L4xx_HAL_Driver/Src/stm32l4xx_hal_hcd.c ****       break;
 704              		.loc 1 476 0
 705 014e 01EB8102 		add	r2, r1, r1, lsl #2
 706              	.LVL59:
 707 0152 D300     		lsls	r3, r2, #3
 708              	.LVL60:
 709 0154 0344     		add	r3, r3, r0
 710 0156 0022     		movs	r2, #0
 711 0158 83F84220 		strb	r2, [r3, #66]
 712              	.L42:
 483:Drivers/STM32L4xx_HAL_Driver/Src/stm32l4xx_hal_hcd.c ****   hhcd->hc[ch_num].xfer_len  = length;
 713              		.loc 1 483 0
 714 015c 8A00     		lsls	r2, r1, #2
 715 015e 5418     		adds	r4, r2, r1
 716 0160 E300     		lsls	r3, r4, #3
 717 0162 0344     		add	r3, r3, r0
 718 0164 079C     		ldr	r4, [sp, #28]
 719 0166 5C64     		str	r4, [r3, #68]
 484:Drivers/STM32L4xx_HAL_Driver/Src/stm32l4xx_hal_hcd.c ****   hhcd->hc[ch_num].urb_state = URB_IDLE;
 720              		.loc 1 484 0
 721 0168 9E64     		str	r6, [r3, #72]
 485:Drivers/STM32L4xx_HAL_Driver/Src/stm32l4xx_hal_hcd.c ****   hhcd->hc[ch_num].xfer_count = 0U;
 722              		.loc 1 485 0
 723 016a 0024     		movs	r4, #0
 724 016c 83F85C40 		strb	r4, [r3, #92]
 486:Drivers/STM32L4xx_HAL_Driver/Src/stm32l4xx_hal_hcd.c ****   hhcd->hc[ch_num].ch_num = ch_num;
 725              		.loc 1 486 0
 726 0170 DC64     		str	r4, [r3, #76]
 487:Drivers/STM32L4xx_HAL_Driver/Src/stm32l4xx_hal_hcd.c ****   hhcd->hc[ch_num].state = HC_IDLE;
 727              		.loc 1 487 0
 728 0172 83F83910 		strb	r1, [r3, #57]
ARM GAS  /tmp/cckZR06T.s 			page 42


 488:Drivers/STM32L4xx_HAL_Driver/Src/stm32l4xx_hal_hcd.c **** 
 729              		.loc 1 488 0
 730 0176 83F85D40 		strb	r4, [r3, #93]
 490:Drivers/STM32L4xx_HAL_Driver/Src/stm32l4xx_hal_hcd.c **** }
 731              		.loc 1 490 0
 732 017a 1144     		add	r1, r1, r2
 733              	.LVL61:
 734 017c CB00     		lsls	r3, r1, #3
 735              	.LVL62:
 736 017e 03F13801 		add	r1, r3, #56
 737 0182 0144     		add	r1, r1, r0
 738 0184 0068     		ldr	r0, [r0]
 739              	.LVL63:
 740 0186 FFF7FEFF 		bl	USB_HC_StartXfer
 741              	.LVL64:
 491:Drivers/STM32L4xx_HAL_Driver/Src/stm32l4xx_hal_hcd.c **** 
 742              		.loc 1 491 0
 743 018a F8BD     		pop	{r3, r4, r5, r6, r7, pc}
 744              		.cfi_endproc
 745              	.LFE129:
 747              		.section	.text.HAL_HCD_SOF_Callback,"ax",%progbits
 748              		.align	1
 749              		.weak	HAL_HCD_SOF_Callback
 750              		.syntax unified
 751              		.thumb
 752              		.thumb_func
 753              		.fpu fpv4-sp-d16
 755              	HAL_HCD_SOF_Callback:
 756              	.LFB131:
 613:Drivers/STM32L4xx_HAL_Driver/Src/stm32l4xx_hal_hcd.c ****   /* Prevent unused argument(s) compilation warning */
 757              		.loc 1 613 0
 758              		.cfi_startproc
 759              		@ args = 0, pretend = 0, frame = 0
 760              		@ frame_needed = 0, uses_anonymous_args = 0
 761              		@ link register save eliminated.
 762              	.LVL65:
 620:Drivers/STM32L4xx_HAL_Driver/Src/stm32l4xx_hal_hcd.c **** 
 763              		.loc 1 620 0
 764 0000 7047     		bx	lr
 765              		.cfi_endproc
 766              	.LFE131:
 768              		.section	.text.HAL_HCD_Connect_Callback,"ax",%progbits
 769              		.align	1
 770              		.weak	HAL_HCD_Connect_Callback
 771              		.syntax unified
 772              		.thumb
 773              		.thumb_func
 774              		.fpu fpv4-sp-d16
 776              	HAL_HCD_Connect_Callback:
 777              	.LFB132:
 628:Drivers/STM32L4xx_HAL_Driver/Src/stm32l4xx_hal_hcd.c ****   /* Prevent unused argument(s) compilation warning */
 778              		.loc 1 628 0
 779              		.cfi_startproc
 780              		@ args = 0, pretend = 0, frame = 0
 781              		@ frame_needed = 0, uses_anonymous_args = 0
 782              		@ link register save eliminated.
 783              	.LVL66:
ARM GAS  /tmp/cckZR06T.s 			page 43


 635:Drivers/STM32L4xx_HAL_Driver/Src/stm32l4xx_hal_hcd.c **** 
 784              		.loc 1 635 0
 785 0000 7047     		bx	lr
 786              		.cfi_endproc
 787              	.LFE132:
 789              		.section	.text.HAL_HCD_Disconnect_Callback,"ax",%progbits
 790              		.align	1
 791              		.weak	HAL_HCD_Disconnect_Callback
 792              		.syntax unified
 793              		.thumb
 794              		.thumb_func
 795              		.fpu fpv4-sp-d16
 797              	HAL_HCD_Disconnect_Callback:
 798              	.LFB133:
 643:Drivers/STM32L4xx_HAL_Driver/Src/stm32l4xx_hal_hcd.c ****   /* Prevent unused argument(s) compilation warning */
 799              		.loc 1 643 0
 800              		.cfi_startproc
 801              		@ args = 0, pretend = 0, frame = 0
 802              		@ frame_needed = 0, uses_anonymous_args = 0
 803              		@ link register save eliminated.
 804              	.LVL67:
 650:Drivers/STM32L4xx_HAL_Driver/Src/stm32l4xx_hal_hcd.c **** 
 805              		.loc 1 650 0
 806 0000 7047     		bx	lr
 807              		.cfi_endproc
 808              	.LFE133:
 810              		.section	.text.HAL_HCD_PortEnabled_Callback,"ax",%progbits
 811              		.align	1
 812              		.weak	HAL_HCD_PortEnabled_Callback
 813              		.syntax unified
 814              		.thumb
 815              		.thumb_func
 816              		.fpu fpv4-sp-d16
 818              	HAL_HCD_PortEnabled_Callback:
 819              	.LFB134:
 658:Drivers/STM32L4xx_HAL_Driver/Src/stm32l4xx_hal_hcd.c ****   /* Prevent unused argument(s) compilation warning */
 820              		.loc 1 658 0
 821              		.cfi_startproc
 822              		@ args = 0, pretend = 0, frame = 0
 823              		@ frame_needed = 0, uses_anonymous_args = 0
 824              		@ link register save eliminated.
 825              	.LVL68:
 665:Drivers/STM32L4xx_HAL_Driver/Src/stm32l4xx_hal_hcd.c **** 
 826              		.loc 1 665 0
 827 0000 7047     		bx	lr
 828              		.cfi_endproc
 829              	.LFE134:
 831              		.section	.text.HAL_HCD_PortDisabled_Callback,"ax",%progbits
 832              		.align	1
 833              		.weak	HAL_HCD_PortDisabled_Callback
 834              		.syntax unified
 835              		.thumb
 836              		.thumb_func
 837              		.fpu fpv4-sp-d16
 839              	HAL_HCD_PortDisabled_Callback:
 840              	.LFB135:
 673:Drivers/STM32L4xx_HAL_Driver/Src/stm32l4xx_hal_hcd.c ****   /* Prevent unused argument(s) compilation warning */
ARM GAS  /tmp/cckZR06T.s 			page 44


 841              		.loc 1 673 0
 842              		.cfi_startproc
 843              		@ args = 0, pretend = 0, frame = 0
 844              		@ frame_needed = 0, uses_anonymous_args = 0
 845              		@ link register save eliminated.
 846              	.LVL69:
 680:Drivers/STM32L4xx_HAL_Driver/Src/stm32l4xx_hal_hcd.c **** 
 847              		.loc 1 680 0
 848 0000 7047     		bx	lr
 849              		.cfi_endproc
 850              	.LFE135:
 852              		.section	.text.HCD_Port_IRQHandler,"ax",%progbits
 853              		.align	1
 854              		.syntax unified
 855              		.thumb
 856              		.thumb_func
 857              		.fpu fpv4-sp-d16
 859              	HCD_Port_IRQHandler:
 860              	.LFB149:
1535:Drivers/STM32L4xx_HAL_Driver/Src/stm32l4xx_hal_hcd.c **** 
1536:Drivers/STM32L4xx_HAL_Driver/Src/stm32l4xx_hal_hcd.c **** /**
1537:Drivers/STM32L4xx_HAL_Driver/Src/stm32l4xx_hal_hcd.c ****   * @brief  Handle Host Port interrupt requests.
1538:Drivers/STM32L4xx_HAL_Driver/Src/stm32l4xx_hal_hcd.c ****   * @param  hhcd HCD handle
1539:Drivers/STM32L4xx_HAL_Driver/Src/stm32l4xx_hal_hcd.c ****   * @retval None
1540:Drivers/STM32L4xx_HAL_Driver/Src/stm32l4xx_hal_hcd.c ****   */
1541:Drivers/STM32L4xx_HAL_Driver/Src/stm32l4xx_hal_hcd.c **** static void HCD_Port_IRQHandler(HCD_HandleTypeDef *hhcd)
1542:Drivers/STM32L4xx_HAL_Driver/Src/stm32l4xx_hal_hcd.c **** {
 861              		.loc 1 1542 0
 862              		.cfi_startproc
 863              		@ args = 0, pretend = 0, frame = 8
 864              		@ frame_needed = 0, uses_anonymous_args = 0
 865              	.LVL70:
 866 0000 30B5     		push	{r4, r5, lr}
 867              	.LCFI15:
 868              		.cfi_def_cfa_offset 12
 869              		.cfi_offset 4, -12
 870              		.cfi_offset 5, -8
 871              		.cfi_offset 14, -4
 872 0002 83B0     		sub	sp, sp, #12
 873              	.LCFI16:
 874              		.cfi_def_cfa_offset 24
 875 0004 0546     		mov	r5, r0
1543:Drivers/STM32L4xx_HAL_Driver/Src/stm32l4xx_hal_hcd.c ****   USB_OTG_GlobalTypeDef *USBx = hhcd->Instance;
 876              		.loc 1 1543 0
 877 0006 0468     		ldr	r4, [r0]
 878              	.LVL71:
1544:Drivers/STM32L4xx_HAL_Driver/Src/stm32l4xx_hal_hcd.c ****   uint32_t USBx_BASE = (uint32_t)USBx;
1545:Drivers/STM32L4xx_HAL_Driver/Src/stm32l4xx_hal_hcd.c ****   __IO uint32_t hprt0, hprt0_dup;
1546:Drivers/STM32L4xx_HAL_Driver/Src/stm32l4xx_hal_hcd.c **** 
1547:Drivers/STM32L4xx_HAL_Driver/Src/stm32l4xx_hal_hcd.c ****   /* Handle Host Port Interrupts */
1548:Drivers/STM32L4xx_HAL_Driver/Src/stm32l4xx_hal_hcd.c ****   hprt0 = USBx_HPRT0;
 879              		.loc 1 1548 0
 880 0008 D4F84034 		ldr	r3, [r4, #1088]
 881 000c 0193     		str	r3, [sp, #4]
1549:Drivers/STM32L4xx_HAL_Driver/Src/stm32l4xx_hal_hcd.c ****   hprt0_dup = USBx_HPRT0;
 882              		.loc 1 1549 0
 883 000e D4F84034 		ldr	r3, [r4, #1088]
ARM GAS  /tmp/cckZR06T.s 			page 45


 884 0012 0093     		str	r3, [sp]
1550:Drivers/STM32L4xx_HAL_Driver/Src/stm32l4xx_hal_hcd.c **** 
1551:Drivers/STM32L4xx_HAL_Driver/Src/stm32l4xx_hal_hcd.c ****   hprt0_dup &= ~(USB_OTG_HPRT_PENA | USB_OTG_HPRT_PCDET | \
 885              		.loc 1 1551 0
 886 0014 009B     		ldr	r3, [sp]
 887 0016 23F02E03 		bic	r3, r3, #46
 888 001a 0093     		str	r3, [sp]
1552:Drivers/STM32L4xx_HAL_Driver/Src/stm32l4xx_hal_hcd.c ****                  USB_OTG_HPRT_PENCHNG | USB_OTG_HPRT_POCCHNG);
1553:Drivers/STM32L4xx_HAL_Driver/Src/stm32l4xx_hal_hcd.c **** 
1554:Drivers/STM32L4xx_HAL_Driver/Src/stm32l4xx_hal_hcd.c ****   /* Check whether Port Connect detected */
1555:Drivers/STM32L4xx_HAL_Driver/Src/stm32l4xx_hal_hcd.c ****   if ((hprt0 & USB_OTG_HPRT_PCDET) == USB_OTG_HPRT_PCDET)
 889              		.loc 1 1555 0
 890 001c 019B     		ldr	r3, [sp, #4]
 891 001e 13F0020F 		tst	r3, #2
 892 0022 07D0     		beq	.L63
1556:Drivers/STM32L4xx_HAL_Driver/Src/stm32l4xx_hal_hcd.c ****   {
1557:Drivers/STM32L4xx_HAL_Driver/Src/stm32l4xx_hal_hcd.c ****     if ((hprt0 & USB_OTG_HPRT_PCSTS) == USB_OTG_HPRT_PCSTS)
 893              		.loc 1 1557 0
 894 0024 019B     		ldr	r3, [sp, #4]
 895 0026 13F0010F 		tst	r3, #1
 896 002a 28D1     		bne	.L72
 897              	.LVL72:
 898              	.L64:
1558:Drivers/STM32L4xx_HAL_Driver/Src/stm32l4xx_hal_hcd.c ****     {
1559:Drivers/STM32L4xx_HAL_Driver/Src/stm32l4xx_hal_hcd.c ****       USB_MASK_INTERRUPT(hhcd->Instance, USB_OTG_GINTSTS_DISCINT);
1560:Drivers/STM32L4xx_HAL_Driver/Src/stm32l4xx_hal_hcd.c **** 
1561:Drivers/STM32L4xx_HAL_Driver/Src/stm32l4xx_hal_hcd.c **** #if (USE_HAL_HCD_REGISTER_CALLBACKS == 1U)
1562:Drivers/STM32L4xx_HAL_Driver/Src/stm32l4xx_hal_hcd.c ****       hhcd->ConnectCallback(hhcd);
1563:Drivers/STM32L4xx_HAL_Driver/Src/stm32l4xx_hal_hcd.c **** #else
1564:Drivers/STM32L4xx_HAL_Driver/Src/stm32l4xx_hal_hcd.c ****       HAL_HCD_Connect_Callback(hhcd);
1565:Drivers/STM32L4xx_HAL_Driver/Src/stm32l4xx_hal_hcd.c **** #endif /* USE_HAL_HCD_REGISTER_CALLBACKS */
1566:Drivers/STM32L4xx_HAL_Driver/Src/stm32l4xx_hal_hcd.c ****     }
1567:Drivers/STM32L4xx_HAL_Driver/Src/stm32l4xx_hal_hcd.c ****     hprt0_dup  |= USB_OTG_HPRT_PCDET;
 899              		.loc 1 1567 0
 900 002c 009B     		ldr	r3, [sp]
 901 002e 43F00203 		orr	r3, r3, #2
 902 0032 0093     		str	r3, [sp]
 903              	.L63:
1568:Drivers/STM32L4xx_HAL_Driver/Src/stm32l4xx_hal_hcd.c ****   }
1569:Drivers/STM32L4xx_HAL_Driver/Src/stm32l4xx_hal_hcd.c **** 
1570:Drivers/STM32L4xx_HAL_Driver/Src/stm32l4xx_hal_hcd.c ****   /* Check whether Port Enable Changed */
1571:Drivers/STM32L4xx_HAL_Driver/Src/stm32l4xx_hal_hcd.c ****   if ((hprt0 & USB_OTG_HPRT_PENCHNG) == USB_OTG_HPRT_PENCHNG)
 904              		.loc 1 1571 0
 905 0034 019B     		ldr	r3, [sp, #4]
 906 0036 13F0080F 		tst	r3, #8
 907 003a 13D0     		beq	.L65
1572:Drivers/STM32L4xx_HAL_Driver/Src/stm32l4xx_hal_hcd.c ****   {
1573:Drivers/STM32L4xx_HAL_Driver/Src/stm32l4xx_hal_hcd.c ****     hprt0_dup |= USB_OTG_HPRT_PENCHNG;
 908              		.loc 1 1573 0
 909 003c 009B     		ldr	r3, [sp]
 910 003e 43F00803 		orr	r3, r3, #8
 911 0042 0093     		str	r3, [sp]
1574:Drivers/STM32L4xx_HAL_Driver/Src/stm32l4xx_hal_hcd.c **** 
1575:Drivers/STM32L4xx_HAL_Driver/Src/stm32l4xx_hal_hcd.c ****     if ((hprt0 & USB_OTG_HPRT_PENA) == USB_OTG_HPRT_PENA)
 912              		.loc 1 1575 0
 913 0044 019B     		ldr	r3, [sp, #4]
 914 0046 13F0040F 		tst	r3, #4
ARM GAS  /tmp/cckZR06T.s 			page 46


 915 004a 34D0     		beq	.L66
1576:Drivers/STM32L4xx_HAL_Driver/Src/stm32l4xx_hal_hcd.c ****     {
1577:Drivers/STM32L4xx_HAL_Driver/Src/stm32l4xx_hal_hcd.c ****       if (hhcd->Init.phy_itface  == USB_OTG_EMBEDDED_PHY)
 916              		.loc 1 1577 0
 917 004c AB69     		ldr	r3, [r5, #24]
 918 004e 022B     		cmp	r3, #2
 919 0050 1CD0     		beq	.L73
1578:Drivers/STM32L4xx_HAL_Driver/Src/stm32l4xx_hal_hcd.c ****       {
1579:Drivers/STM32L4xx_HAL_Driver/Src/stm32l4xx_hal_hcd.c ****         if ((hprt0 & USB_OTG_HPRT_PSPD) == (HPRT0_PRTSPD_LOW_SPEED << 17))
1580:Drivers/STM32L4xx_HAL_Driver/Src/stm32l4xx_hal_hcd.c ****         {
1581:Drivers/STM32L4xx_HAL_Driver/Src/stm32l4xx_hal_hcd.c ****           (void)USB_InitFSLSPClkSel(hhcd->Instance, HCFG_6_MHZ);
1582:Drivers/STM32L4xx_HAL_Driver/Src/stm32l4xx_hal_hcd.c ****         }
1583:Drivers/STM32L4xx_HAL_Driver/Src/stm32l4xx_hal_hcd.c ****         else
1584:Drivers/STM32L4xx_HAL_Driver/Src/stm32l4xx_hal_hcd.c ****         {
1585:Drivers/STM32L4xx_HAL_Driver/Src/stm32l4xx_hal_hcd.c ****           (void)USB_InitFSLSPClkSel(hhcd->Instance, HCFG_48_MHZ);
1586:Drivers/STM32L4xx_HAL_Driver/Src/stm32l4xx_hal_hcd.c ****         }
1587:Drivers/STM32L4xx_HAL_Driver/Src/stm32l4xx_hal_hcd.c ****       }
1588:Drivers/STM32L4xx_HAL_Driver/Src/stm32l4xx_hal_hcd.c ****       else
1589:Drivers/STM32L4xx_HAL_Driver/Src/stm32l4xx_hal_hcd.c ****       {
1590:Drivers/STM32L4xx_HAL_Driver/Src/stm32l4xx_hal_hcd.c ****         if (hhcd->Init.speed == HCD_SPEED_FULL)
 920              		.loc 1 1590 0
 921 0052 EB68     		ldr	r3, [r5, #12]
 922 0054 032B     		cmp	r3, #3
 923 0056 29D0     		beq	.L74
 924              	.L69:
1591:Drivers/STM32L4xx_HAL_Driver/Src/stm32l4xx_hal_hcd.c ****         {
1592:Drivers/STM32L4xx_HAL_Driver/Src/stm32l4xx_hal_hcd.c ****           USBx_HOST->HFIR = 60000U;
1593:Drivers/STM32L4xx_HAL_Driver/Src/stm32l4xx_hal_hcd.c ****         }
1594:Drivers/STM32L4xx_HAL_Driver/Src/stm32l4xx_hal_hcd.c ****       }
1595:Drivers/STM32L4xx_HAL_Driver/Src/stm32l4xx_hal_hcd.c **** #if (USE_HAL_HCD_REGISTER_CALLBACKS == 1U)
1596:Drivers/STM32L4xx_HAL_Driver/Src/stm32l4xx_hal_hcd.c ****       hhcd->PortEnabledCallback(hhcd);
1597:Drivers/STM32L4xx_HAL_Driver/Src/stm32l4xx_hal_hcd.c ****       hhcd->ConnectCallback(hhcd);
1598:Drivers/STM32L4xx_HAL_Driver/Src/stm32l4xx_hal_hcd.c **** #else
1599:Drivers/STM32L4xx_HAL_Driver/Src/stm32l4xx_hal_hcd.c ****       HAL_HCD_PortEnabled_Callback(hhcd);
 925              		.loc 1 1599 0
 926 0058 2846     		mov	r0, r5
 927 005a FFF7FEFF 		bl	HAL_HCD_PortEnabled_Callback
 928              	.LVL73:
1600:Drivers/STM32L4xx_HAL_Driver/Src/stm32l4xx_hal_hcd.c ****       HAL_HCD_Connect_Callback(hhcd);
 929              		.loc 1 1600 0
 930 005e 2846     		mov	r0, r5
 931 0060 FFF7FEFF 		bl	HAL_HCD_Connect_Callback
 932              	.LVL74:
 933              	.L65:
1601:Drivers/STM32L4xx_HAL_Driver/Src/stm32l4xx_hal_hcd.c **** #endif /* USE_HAL_HCD_REGISTER_CALLBACKS */
1602:Drivers/STM32L4xx_HAL_Driver/Src/stm32l4xx_hal_hcd.c **** 
1603:Drivers/STM32L4xx_HAL_Driver/Src/stm32l4xx_hal_hcd.c ****     }
1604:Drivers/STM32L4xx_HAL_Driver/Src/stm32l4xx_hal_hcd.c ****     else
1605:Drivers/STM32L4xx_HAL_Driver/Src/stm32l4xx_hal_hcd.c ****     {
1606:Drivers/STM32L4xx_HAL_Driver/Src/stm32l4xx_hal_hcd.c **** #if (USE_HAL_HCD_REGISTER_CALLBACKS == 1U)
1607:Drivers/STM32L4xx_HAL_Driver/Src/stm32l4xx_hal_hcd.c ****       hhcd->PortDisabledCallback(hhcd);
1608:Drivers/STM32L4xx_HAL_Driver/Src/stm32l4xx_hal_hcd.c **** #else
1609:Drivers/STM32L4xx_HAL_Driver/Src/stm32l4xx_hal_hcd.c ****       HAL_HCD_PortDisabled_Callback(hhcd);
1610:Drivers/STM32L4xx_HAL_Driver/Src/stm32l4xx_hal_hcd.c **** #endif /* USE_HAL_HCD_REGISTER_CALLBACKS */
1611:Drivers/STM32L4xx_HAL_Driver/Src/stm32l4xx_hal_hcd.c **** 
1612:Drivers/STM32L4xx_HAL_Driver/Src/stm32l4xx_hal_hcd.c ****       /* Cleanup HPRT */
1613:Drivers/STM32L4xx_HAL_Driver/Src/stm32l4xx_hal_hcd.c ****       USBx_HPRT0 &= ~(USB_OTG_HPRT_PENA | USB_OTG_HPRT_PCDET | \
ARM GAS  /tmp/cckZR06T.s 			page 47


1614:Drivers/STM32L4xx_HAL_Driver/Src/stm32l4xx_hal_hcd.c ****                       USB_OTG_HPRT_PENCHNG | USB_OTG_HPRT_POCCHNG);
1615:Drivers/STM32L4xx_HAL_Driver/Src/stm32l4xx_hal_hcd.c **** 
1616:Drivers/STM32L4xx_HAL_Driver/Src/stm32l4xx_hal_hcd.c ****       USB_UNMASK_INTERRUPT(hhcd->Instance, USB_OTG_GINTSTS_DISCINT);
1617:Drivers/STM32L4xx_HAL_Driver/Src/stm32l4xx_hal_hcd.c ****     }
1618:Drivers/STM32L4xx_HAL_Driver/Src/stm32l4xx_hal_hcd.c ****   }
1619:Drivers/STM32L4xx_HAL_Driver/Src/stm32l4xx_hal_hcd.c **** 
1620:Drivers/STM32L4xx_HAL_Driver/Src/stm32l4xx_hal_hcd.c ****   /* Check for an overcurrent */
1621:Drivers/STM32L4xx_HAL_Driver/Src/stm32l4xx_hal_hcd.c ****   if ((hprt0 & USB_OTG_HPRT_POCCHNG) == USB_OTG_HPRT_POCCHNG)
 934              		.loc 1 1621 0
 935 0064 019B     		ldr	r3, [sp, #4]
 936 0066 13F0200F 		tst	r3, #32
 937 006a 03D0     		beq	.L70
1622:Drivers/STM32L4xx_HAL_Driver/Src/stm32l4xx_hal_hcd.c ****   {
1623:Drivers/STM32L4xx_HAL_Driver/Src/stm32l4xx_hal_hcd.c ****     hprt0_dup |= USB_OTG_HPRT_POCCHNG;
 938              		.loc 1 1623 0
 939 006c 009B     		ldr	r3, [sp]
 940 006e 43F02003 		orr	r3, r3, #32
 941 0072 0093     		str	r3, [sp]
 942              	.L70:
1624:Drivers/STM32L4xx_HAL_Driver/Src/stm32l4xx_hal_hcd.c ****   }
1625:Drivers/STM32L4xx_HAL_Driver/Src/stm32l4xx_hal_hcd.c **** 
1626:Drivers/STM32L4xx_HAL_Driver/Src/stm32l4xx_hal_hcd.c ****   /* Clear Port Interrupts */
1627:Drivers/STM32L4xx_HAL_Driver/Src/stm32l4xx_hal_hcd.c ****   USBx_HPRT0 = hprt0_dup;
 943              		.loc 1 1627 0
 944 0074 009B     		ldr	r3, [sp]
 945 0076 C4F84034 		str	r3, [r4, #1088]
1628:Drivers/STM32L4xx_HAL_Driver/Src/stm32l4xx_hal_hcd.c **** }
 946              		.loc 1 1628 0
 947 007a 03B0     		add	sp, sp, #12
 948              	.LCFI17:
 949              		.cfi_remember_state
 950              		.cfi_def_cfa_offset 12
 951              		@ sp needed
 952 007c 30BD     		pop	{r4, r5, pc}
 953              	.LVL75:
 954              	.L72:
 955              	.LCFI18:
 956              		.cfi_restore_state
1559:Drivers/STM32L4xx_HAL_Driver/Src/stm32l4xx_hal_hcd.c **** 
 957              		.loc 1 1559 0
 958 007e A369     		ldr	r3, [r4, #24]
 959 0080 23F00053 		bic	r3, r3, #536870912
 960 0084 A361     		str	r3, [r4, #24]
1564:Drivers/STM32L4xx_HAL_Driver/Src/stm32l4xx_hal_hcd.c **** #endif /* USE_HAL_HCD_REGISTER_CALLBACKS */
 961              		.loc 1 1564 0
 962 0086 FFF7FEFF 		bl	HAL_HCD_Connect_Callback
 963              	.LVL76:
 964 008a CFE7     		b	.L64
 965              	.L73:
1579:Drivers/STM32L4xx_HAL_Driver/Src/stm32l4xx_hal_hcd.c ****         {
 966              		.loc 1 1579 0
 967 008c 019B     		ldr	r3, [sp, #4]
 968 008e 03F4C023 		and	r3, r3, #393216
 969 0092 B3F5802F 		cmp	r3, #262144
 970 0096 04D0     		beq	.L75
1585:Drivers/STM32L4xx_HAL_Driver/Src/stm32l4xx_hal_hcd.c ****         }
 971              		.loc 1 1585 0
ARM GAS  /tmp/cckZR06T.s 			page 48


 972 0098 0121     		movs	r1, #1
 973 009a 2868     		ldr	r0, [r5]
 974 009c FFF7FEFF 		bl	USB_InitFSLSPClkSel
 975              	.LVL77:
 976 00a0 DAE7     		b	.L69
 977              	.L75:
1581:Drivers/STM32L4xx_HAL_Driver/Src/stm32l4xx_hal_hcd.c ****         }
 978              		.loc 1 1581 0
 979 00a2 0221     		movs	r1, #2
 980 00a4 2868     		ldr	r0, [r5]
 981 00a6 FFF7FEFF 		bl	USB_InitFSLSPClkSel
 982              	.LVL78:
 983 00aa D5E7     		b	.L69
 984              	.L74:
1592:Drivers/STM32L4xx_HAL_Driver/Src/stm32l4xx_hal_hcd.c ****         }
 985              		.loc 1 1592 0
 986 00ac 4EF66022 		movw	r2, #60000
 987 00b0 C4F80424 		str	r2, [r4, #1028]
 988 00b4 D0E7     		b	.L69
 989              	.L66:
1609:Drivers/STM32L4xx_HAL_Driver/Src/stm32l4xx_hal_hcd.c **** #endif /* USE_HAL_HCD_REGISTER_CALLBACKS */
 990              		.loc 1 1609 0
 991 00b6 2846     		mov	r0, r5
 992 00b8 FFF7FEFF 		bl	HAL_HCD_PortDisabled_Callback
 993              	.LVL79:
1613:Drivers/STM32L4xx_HAL_Driver/Src/stm32l4xx_hal_hcd.c ****                       USB_OTG_HPRT_PENCHNG | USB_OTG_HPRT_POCCHNG);
 994              		.loc 1 1613 0
 995 00bc D4F84034 		ldr	r3, [r4, #1088]
 996 00c0 23F02E03 		bic	r3, r3, #46
 997 00c4 C4F84034 		str	r3, [r4, #1088]
1616:Drivers/STM32L4xx_HAL_Driver/Src/stm32l4xx_hal_hcd.c ****     }
 998              		.loc 1 1616 0
 999 00c8 2A68     		ldr	r2, [r5]
 1000 00ca 9369     		ldr	r3, [r2, #24]
 1001 00cc 43F00053 		orr	r3, r3, #536870912
 1002 00d0 9361     		str	r3, [r2, #24]
 1003 00d2 C7E7     		b	.L65
 1004              		.cfi_endproc
 1005              	.LFE149:
 1007              		.section	.text.HAL_HCD_HC_NotifyURBChange_Callback,"ax",%progbits
 1008              		.align	1
 1009              		.weak	HAL_HCD_HC_NotifyURBChange_Callback
 1010              		.syntax unified
 1011              		.thumb
 1012              		.thumb_func
 1013              		.fpu fpv4-sp-d16
 1015              	HAL_HCD_HC_NotifyURBChange_Callback:
 1016              	.LFB136:
 698:Drivers/STM32L4xx_HAL_Driver/Src/stm32l4xx_hal_hcd.c ****   /* Prevent unused argument(s) compilation warning */
 1017              		.loc 1 698 0
 1018              		.cfi_startproc
 1019              		@ args = 0, pretend = 0, frame = 0
 1020              		@ frame_needed = 0, uses_anonymous_args = 0
 1021              		@ link register save eliminated.
 1022              	.LVL80:
 707:Drivers/STM32L4xx_HAL_Driver/Src/stm32l4xx_hal_hcd.c **** 
 1023              		.loc 1 707 0
ARM GAS  /tmp/cckZR06T.s 			page 49


 1024 0000 7047     		bx	lr
 1025              		.cfi_endproc
 1026              	.LFE136:
 1028              		.section	.text.HCD_HC_IN_IRQHandler,"ax",%progbits
 1029              		.align	1
 1030              		.syntax unified
 1031              		.thumb
 1032              		.thumb_func
 1033              		.fpu fpv4-sp-d16
 1035              	HCD_HC_IN_IRQHandler:
 1036              	.LFB146:
1164:Drivers/STM32L4xx_HAL_Driver/Src/stm32l4xx_hal_hcd.c ****   USB_OTG_GlobalTypeDef *USBx = hhcd->Instance;
 1037              		.loc 1 1164 0
 1038              		.cfi_startproc
 1039              		@ args = 0, pretend = 0, frame = 0
 1040              		@ frame_needed = 0, uses_anonymous_args = 0
 1041              	.LVL81:
 1042 0000 F8B5     		push	{r3, r4, r5, r6, r7, lr}
 1043              	.LCFI19:
 1044              		.cfi_def_cfa_offset 24
 1045              		.cfi_offset 3, -24
 1046              		.cfi_offset 4, -20
 1047              		.cfi_offset 5, -16
 1048              		.cfi_offset 6, -12
 1049              		.cfi_offset 7, -8
 1050              		.cfi_offset 14, -4
 1051 0002 0646     		mov	r6, r0
 1052 0004 0D46     		mov	r5, r1
1165:Drivers/STM32L4xx_HAL_Driver/Src/stm32l4xx_hal_hcd.c ****   uint32_t USBx_BASE = (uint32_t)USBx;
 1053              		.loc 1 1165 0
 1054 0006 0768     		ldr	r7, [r0]
 1055              	.LVL82:
1171:Drivers/STM32L4xx_HAL_Driver/Src/stm32l4xx_hal_hcd.c ****   {
 1056              		.loc 1 1171 0
 1057 0008 07EB4117 		add	r7, r7, r1, lsl #5
 1058              	.LVL83:
 1059 000c 07F5A064 		add	r4, r7, #1280
 1060 0010 A368     		ldr	r3, [r4, #8]
 1061 0012 13F0040F 		tst	r3, #4
 1062 0016 3ED0     		beq	.L78
1173:Drivers/STM32L4xx_HAL_Driver/Src/stm32l4xx_hal_hcd.c ****     __HAL_HCD_UNMASK_HALT_HC_INT(ch_num);
 1063              		.loc 1 1173 0
 1064 0018 0423     		movs	r3, #4
 1065 001a A360     		str	r3, [r4, #8]
 1066              	.LVL84:
1174:Drivers/STM32L4xx_HAL_Driver/Src/stm32l4xx_hal_hcd.c ****   }
 1067              		.loc 1 1174 0
 1068 001c E368     		ldr	r3, [r4, #12]
 1069 001e 43F00203 		orr	r3, r3, #2
 1070 0022 E360     		str	r3, [r4, #12]
 1071              	.LVL85:
 1072              	.L79:
1201:Drivers/STM32L4xx_HAL_Driver/Src/stm32l4xx_hal_hcd.c ****   {
 1073              		.loc 1 1201 0
 1074 0024 A368     		ldr	r3, [r4, #8]
 1075 0026 13F4007F 		tst	r3, #512
 1076 002a 6AD1     		bne	.L102
ARM GAS  /tmp/cckZR06T.s 			page 50


1207:Drivers/STM32L4xx_HAL_Driver/Src/stm32l4xx_hal_hcd.c ****   {
 1077              		.loc 1 1207 0
 1078 002c A368     		ldr	r3, [r4, #8]
 1079 002e 13F0010F 		tst	r3, #1
 1080 0032 00F08780 		beq	.L84
1209:Drivers/STM32L4xx_HAL_Driver/Src/stm32l4xx_hal_hcd.c ****     {
 1081              		.loc 1 1209 0
 1082 0036 3369     		ldr	r3, [r6, #16]
 1083 0038 4BB1     		cbz	r3, .L85
1211:Drivers/STM32L4xx_HAL_Driver/Src/stm32l4xx_hal_hcd.c ****                                     (USBx_HC(ch_num)->HCTSIZ & USB_OTG_HCTSIZ_XFRSIZ);
 1084              		.loc 1 1211 0
 1085 003a AA00     		lsls	r2, r5, #2
 1086 003c 2A44     		add	r2, r2, r5
 1087 003e D300     		lsls	r3, r2, #3
 1088 0040 3344     		add	r3, r3, r6
 1089 0042 9A6C     		ldr	r2, [r3, #72]
1212:Drivers/STM32L4xx_HAL_Driver/Src/stm32l4xx_hal_hcd.c ****     }
 1090              		.loc 1 1212 0
 1091 0044 2169     		ldr	r1, [r4, #16]
 1092 0046 C1F31201 		ubfx	r1, r1, #0, #19
1211:Drivers/STM32L4xx_HAL_Driver/Src/stm32l4xx_hal_hcd.c ****                                     (USBx_HC(ch_num)->HCTSIZ & USB_OTG_HCTSIZ_XFRSIZ);
 1093              		.loc 1 1211 0
 1094 004a 521A     		subs	r2, r2, r1
 1095 004c DA64     		str	r2, [r3, #76]
 1096              	.L85:
1215:Drivers/STM32L4xx_HAL_Driver/Src/stm32l4xx_hal_hcd.c ****     hhcd->hc[ch_num].ErrCnt = 0U;
 1097              		.loc 1 1215 0
 1098 004e AA00     		lsls	r2, r5, #2
 1099 0050 2A44     		add	r2, r2, r5
 1100 0052 D300     		lsls	r3, r2, #3
 1101 0054 3344     		add	r3, r3, r6
 1102 0056 0122     		movs	r2, #1
 1103 0058 83F85D20 		strb	r2, [r3, #93]
1216:Drivers/STM32L4xx_HAL_Driver/Src/stm32l4xx_hal_hcd.c ****     __HAL_HCD_CLEAR_HC_INT(ch_num, USB_OTG_HCINT_XFRC);
 1104              		.loc 1 1216 0
 1105 005c 0021     		movs	r1, #0
 1106 005e 9965     		str	r1, [r3, #88]
1217:Drivers/STM32L4xx_HAL_Driver/Src/stm32l4xx_hal_hcd.c **** 
 1107              		.loc 1 1217 0
 1108 0060 A260     		str	r2, [r4, #8]
1219:Drivers/STM32L4xx_HAL_Driver/Src/stm32l4xx_hal_hcd.c ****         (hhcd->hc[ch_num].ep_type == EP_TYPE_BULK))
 1109              		.loc 1 1219 0
 1110 0062 93F83F30 		ldrb	r3, [r3, #63]	@ zero_extendqisi2
 1111 0066 002B     		cmp	r3, #0
 1112 0068 57D0     		beq	.L86
1219:Drivers/STM32L4xx_HAL_Driver/Src/stm32l4xx_hal_hcd.c ****         (hhcd->hc[ch_num].ep_type == EP_TYPE_BULK))
 1113              		.loc 1 1219 0 is_stmt 0 discriminator 1
 1114 006a 022B     		cmp	r3, #2
 1115 006c 55D0     		beq	.L86
1226:Drivers/STM32L4xx_HAL_Driver/Src/stm32l4xx_hal_hcd.c ****     {
 1116              		.loc 1 1226 0 is_stmt 1
 1117 006e 032B     		cmp	r3, #3
 1118 0070 5DD1     		bne	.L88
1228:Drivers/STM32L4xx_HAL_Driver/Src/stm32l4xx_hal_hcd.c ****       hhcd->hc[ch_num].urb_state = URB_DONE;
 1119              		.loc 1 1228 0
 1120 0072 D7F80035 		ldr	r3, [r7, #1280]
 1121 0076 43F00053 		orr	r3, r3, #536870912
ARM GAS  /tmp/cckZR06T.s 			page 51


 1122 007a C7F80035 		str	r3, [r7, #1280]
1229:Drivers/STM32L4xx_HAL_Driver/Src/stm32l4xx_hal_hcd.c **** 
 1123              		.loc 1 1229 0
 1124 007e 05EB8502 		add	r2, r5, r5, lsl #2
 1125 0082 D300     		lsls	r3, r2, #3
 1126 0084 3344     		add	r3, r3, r6
 1127 0086 0122     		movs	r2, #1
 1128 0088 83F85C20 		strb	r2, [r3, #92]
1234:Drivers/STM32L4xx_HAL_Driver/Src/stm32l4xx_hal_hcd.c **** #endif /* USE_HAL_HCD_REGISTER_CALLBACKS */
 1129              		.loc 1 1234 0
 1130 008c 2946     		mov	r1, r5
 1131 008e 3046     		mov	r0, r6
 1132 0090 FFF7FEFF 		bl	HAL_HCD_HC_NotifyURBChange_Callback
 1133              	.LVL86:
 1134 0094 4BE0     		b	.L88
 1135              	.LVL87:
 1136              	.L78:
1176:Drivers/STM32L4xx_HAL_Driver/Src/stm32l4xx_hal_hcd.c ****   {
 1137              		.loc 1 1176 0
 1138 0096 A368     		ldr	r3, [r4, #8]
 1139 0098 13F0200F 		tst	r3, #32
 1140 009c 02D0     		beq	.L80
1178:Drivers/STM32L4xx_HAL_Driver/Src/stm32l4xx_hal_hcd.c ****   }
 1141              		.loc 1 1178 0
 1142 009e 2023     		movs	r3, #32
 1143 00a0 A360     		str	r3, [r4, #8]
 1144              	.LVL88:
 1145 00a2 BFE7     		b	.L79
 1146              	.LVL89:
 1147              	.L80:
1180:Drivers/STM32L4xx_HAL_Driver/Src/stm32l4xx_hal_hcd.c ****   {
 1148              		.loc 1 1180 0
 1149 00a4 A368     		ldr	r3, [r4, #8]
 1150 00a6 13F0080F 		tst	r3, #8
 1151 00aa 17D1     		bne	.L103
1188:Drivers/STM32L4xx_HAL_Driver/Src/stm32l4xx_hal_hcd.c ****   {
 1152              		.loc 1 1188 0
 1153 00ac A368     		ldr	r3, [r4, #8]
 1154 00ae 13F4806F 		tst	r3, #1024
 1155 00b2 B7D0     		beq	.L79
1190:Drivers/STM32L4xx_HAL_Driver/Src/stm32l4xx_hal_hcd.c ****     (void)USB_HC_Halt(hhcd->Instance, (uint8_t)ch_num);
 1156              		.loc 1 1190 0
 1157 00b4 E368     		ldr	r3, [r4, #12]
 1158 00b6 43F00203 		orr	r3, r3, #2
 1159 00ba E360     		str	r3, [r4, #12]
 1160              	.LVL90:
1191:Drivers/STM32L4xx_HAL_Driver/Src/stm32l4xx_hal_hcd.c ****     __HAL_HCD_CLEAR_HC_INT(ch_num, USB_OTG_HCINT_NAK);
 1161              		.loc 1 1191 0
 1162 00bc 0068     		ldr	r0, [r0]
 1163              	.LVL91:
 1164 00be FFF7FEFF 		bl	USB_HC_Halt
 1165              	.LVL92:
1192:Drivers/STM32L4xx_HAL_Driver/Src/stm32l4xx_hal_hcd.c ****     hhcd->hc[ch_num].state = HC_DATATGLERR;
 1166              		.loc 1 1192 0
 1167 00c2 1023     		movs	r3, #16
 1168 00c4 A360     		str	r3, [r4, #8]
1193:Drivers/STM32L4xx_HAL_Driver/Src/stm32l4xx_hal_hcd.c ****     __HAL_HCD_CLEAR_HC_INT(ch_num, USB_OTG_HCINT_DTERR);
ARM GAS  /tmp/cckZR06T.s 			page 52


 1169              		.loc 1 1193 0
 1170 00c6 05EB8502 		add	r2, r5, r5, lsl #2
 1171 00ca D300     		lsls	r3, r2, #3
 1172 00cc 3344     		add	r3, r3, r6
 1173 00ce 0822     		movs	r2, #8
 1174 00d0 83F85D20 		strb	r2, [r3, #93]
1194:Drivers/STM32L4xx_HAL_Driver/Src/stm32l4xx_hal_hcd.c ****   }
 1175              		.loc 1 1194 0
 1176 00d4 4FF48063 		mov	r3, #1024
 1177 00d8 A360     		str	r3, [r4, #8]
 1178 00da A3E7     		b	.L79
 1179              	.LVL93:
 1180              	.L103:
1182:Drivers/STM32L4xx_HAL_Driver/Src/stm32l4xx_hal_hcd.c ****     hhcd->hc[ch_num].state = HC_STALL;
 1181              		.loc 1 1182 0
 1182 00dc E368     		ldr	r3, [r4, #12]
 1183 00de 43F00203 		orr	r3, r3, #2
 1184 00e2 E360     		str	r3, [r4, #12]
 1185              	.LVL94:
1183:Drivers/STM32L4xx_HAL_Driver/Src/stm32l4xx_hal_hcd.c ****     __HAL_HCD_CLEAR_HC_INT(ch_num, USB_OTG_HCINT_NAK);
 1186              		.loc 1 1183 0
 1187 00e4 01EB8102 		add	r2, r1, r1, lsl #2
 1188 00e8 D300     		lsls	r3, r2, #3
 1189 00ea 0344     		add	r3, r3, r0
 1190 00ec 0522     		movs	r2, #5
 1191 00ee 83F85D20 		strb	r2, [r3, #93]
1184:Drivers/STM32L4xx_HAL_Driver/Src/stm32l4xx_hal_hcd.c ****     __HAL_HCD_CLEAR_HC_INT(ch_num, USB_OTG_HCINT_STALL);
 1192              		.loc 1 1184 0
 1193 00f2 1023     		movs	r3, #16
 1194 00f4 A360     		str	r3, [r4, #8]
1185:Drivers/STM32L4xx_HAL_Driver/Src/stm32l4xx_hal_hcd.c ****     (void)USB_HC_Halt(hhcd->Instance, (uint8_t)ch_num);
 1195              		.loc 1 1185 0
 1196 00f6 0823     		movs	r3, #8
 1197 00f8 A360     		str	r3, [r4, #8]
1186:Drivers/STM32L4xx_HAL_Driver/Src/stm32l4xx_hal_hcd.c ****   }
 1198              		.loc 1 1186 0
 1199 00fa 0068     		ldr	r0, [r0]
 1200              	.LVL95:
 1201 00fc FFF7FEFF 		bl	USB_HC_Halt
 1202              	.LVL96:
 1203 0100 90E7     		b	.L79
 1204              	.L102:
1203:Drivers/STM32L4xx_HAL_Driver/Src/stm32l4xx_hal_hcd.c ****     (void)USB_HC_Halt(hhcd->Instance, (uint8_t)ch_num);
 1205              		.loc 1 1203 0
 1206 0102 E368     		ldr	r3, [r4, #12]
 1207 0104 43F00203 		orr	r3, r3, #2
 1208 0108 E360     		str	r3, [r4, #12]
1204:Drivers/STM32L4xx_HAL_Driver/Src/stm32l4xx_hal_hcd.c ****     __HAL_HCD_CLEAR_HC_INT(ch_num, USB_OTG_HCINT_FRMOR);
 1209              		.loc 1 1204 0
 1210 010a 2946     		mov	r1, r5
 1211 010c 3068     		ldr	r0, [r6]
 1212 010e FFF7FEFF 		bl	USB_HC_Halt
 1213              	.LVL97:
1205:Drivers/STM32L4xx_HAL_Driver/Src/stm32l4xx_hal_hcd.c ****   }
 1214              		.loc 1 1205 0
 1215 0112 4FF40073 		mov	r3, #512
 1216 0116 A360     		str	r3, [r4, #8]
ARM GAS  /tmp/cckZR06T.s 			page 53


 1217 0118 13E0     		b	.L77
 1218              	.L86:
1222:Drivers/STM32L4xx_HAL_Driver/Src/stm32l4xx_hal_hcd.c ****       (void)USB_HC_Halt(hhcd->Instance, (uint8_t)ch_num);
 1219              		.loc 1 1222 0
 1220 011a E368     		ldr	r3, [r4, #12]
 1221 011c 43F00203 		orr	r3, r3, #2
 1222 0120 E360     		str	r3, [r4, #12]
1223:Drivers/STM32L4xx_HAL_Driver/Src/stm32l4xx_hal_hcd.c ****       __HAL_HCD_CLEAR_HC_INT(ch_num, USB_OTG_HCINT_NAK);
 1223              		.loc 1 1223 0
 1224 0122 2946     		mov	r1, r5
 1225 0124 3068     		ldr	r0, [r6]
 1226 0126 FFF7FEFF 		bl	USB_HC_Halt
 1227              	.LVL98:
1224:Drivers/STM32L4xx_HAL_Driver/Src/stm32l4xx_hal_hcd.c ****     }
 1228              		.loc 1 1224 0
 1229 012a 1023     		movs	r3, #16
 1230 012c A360     		str	r3, [r4, #8]
 1231              	.L88:
1241:Drivers/STM32L4xx_HAL_Driver/Src/stm32l4xx_hal_hcd.c **** 
 1232              		.loc 1 1241 0
 1233 012e AB00     		lsls	r3, r5, #2
 1234 0130 5919     		adds	r1, r3, r5
 1235 0132 CA00     		lsls	r2, r1, #3
 1236 0134 3244     		add	r2, r2, r6
 1237 0136 92F85030 		ldrb	r3, [r2, #80]	@ zero_extendqisi2
 1238 013a 83F00103 		eor	r3, r3, #1
 1239 013e 82F85030 		strb	r3, [r2, #80]
 1240              	.L77:
1329:Drivers/STM32L4xx_HAL_Driver/Src/stm32l4xx_hal_hcd.c **** 
 1241              		.loc 1 1329 0
 1242 0142 F8BD     		pop	{r3, r4, r5, r6, r7, pc}
 1243              	.LVL99:
 1244              	.L84:
1244:Drivers/STM32L4xx_HAL_Driver/Src/stm32l4xx_hal_hcd.c ****   {
 1245              		.loc 1 1244 0
 1246 0144 A368     		ldr	r3, [r4, #8]
 1247 0146 13F0020F 		tst	r3, #2
 1248 014a 62D0     		beq	.L89
1246:Drivers/STM32L4xx_HAL_Driver/Src/stm32l4xx_hal_hcd.c **** 
 1249              		.loc 1 1246 0
 1250 014c E368     		ldr	r3, [r4, #12]
 1251 014e 23F00203 		bic	r3, r3, #2
 1252 0152 E360     		str	r3, [r4, #12]
1248:Drivers/STM32L4xx_HAL_Driver/Src/stm32l4xx_hal_hcd.c ****     {
 1253              		.loc 1 1248 0
 1254 0154 05EB8502 		add	r2, r5, r5, lsl #2
 1255 0158 D300     		lsls	r3, r2, #3
 1256 015a 3344     		add	r3, r3, r6
 1257 015c 93F85D30 		ldrb	r3, [r3, #93]	@ zero_extendqisi2
 1258 0160 012B     		cmp	r3, #1
 1259 0162 17D0     		beq	.L104
1252:Drivers/STM32L4xx_HAL_Driver/Src/stm32l4xx_hal_hcd.c ****     {
 1260              		.loc 1 1252 0
 1261 0164 052B     		cmp	r3, #5
 1262 0166 29D0     		beq	.L105
1256:Drivers/STM32L4xx_HAL_Driver/Src/stm32l4xx_hal_hcd.c ****              (hhcd->hc[ch_num].state == HC_DATATGLERR))
 1263              		.loc 1 1256 0
ARM GAS  /tmp/cckZR06T.s 			page 54


 1264 0168 062B     		cmp	r3, #6
 1265 016a 2FD0     		beq	.L93
1256:Drivers/STM32L4xx_HAL_Driver/Src/stm32l4xx_hal_hcd.c ****              (hhcd->hc[ch_num].state == HC_DATATGLERR))
 1266              		.loc 1 1256 0 is_stmt 0 discriminator 1
 1267 016c 082B     		cmp	r3, #8
 1268 016e 2DD0     		beq	.L93
1276:Drivers/STM32L4xx_HAL_Driver/Src/stm32l4xx_hal_hcd.c ****     {
 1269              		.loc 1 1276 0 is_stmt 1
 1270 0170 032B     		cmp	r3, #3
 1271 0172 16D1     		bne	.L91
1278:Drivers/STM32L4xx_HAL_Driver/Src/stm32l4xx_hal_hcd.c ****       /* re-activate the channel  */
 1272              		.loc 1 1278 0
 1273 0174 05EB8502 		add	r2, r5, r5, lsl #2
 1274 0178 D300     		lsls	r3, r2, #3
 1275 017a 3344     		add	r3, r3, r6
 1276 017c 0222     		movs	r2, #2
 1277 017e 83F85C20 		strb	r2, [r3, #92]
1280:Drivers/STM32L4xx_HAL_Driver/Src/stm32l4xx_hal_hcd.c ****       tmpreg &= ~USB_OTG_HCCHAR_CHDIS;
 1278              		.loc 1 1280 0
 1279 0182 D7F80035 		ldr	r3, [r7, #1280]
 1280              	.LVL100:
1281:Drivers/STM32L4xx_HAL_Driver/Src/stm32l4xx_hal_hcd.c ****       tmpreg |= USB_OTG_HCCHAR_CHENA;
 1281              		.loc 1 1281 0
 1282 0186 23F08043 		bic	r3, r3, #1073741824
 1283              	.LVL101:
1282:Drivers/STM32L4xx_HAL_Driver/Src/stm32l4xx_hal_hcd.c ****       USBx_HC(ch_num)->HCCHAR = tmpreg;
 1284              		.loc 1 1282 0
 1285 018a 43F00043 		orr	r3, r3, #-2147483648
 1286              	.LVL102:
1283:Drivers/STM32L4xx_HAL_Driver/Src/stm32l4xx_hal_hcd.c ****     }
 1287              		.loc 1 1283 0
 1288 018e C7F80035 		str	r3, [r7, #1280]
 1289 0192 06E0     		b	.L91
 1290              	.LVL103:
 1291              	.L104:
1250:Drivers/STM32L4xx_HAL_Driver/Src/stm32l4xx_hal_hcd.c ****     }
 1292              		.loc 1 1250 0
 1293 0194 05EB8502 		add	r2, r5, r5, lsl #2
 1294 0198 D300     		lsls	r3, r2, #3
 1295 019a 3344     		add	r3, r3, r6
 1296 019c 0122     		movs	r2, #1
 1297 019e 83F85C20 		strb	r2, [r3, #92]
 1298              	.L91:
1289:Drivers/STM32L4xx_HAL_Driver/Src/stm32l4xx_hal_hcd.c ****     HAL_HCD_HC_NotifyURBChange_Callback(hhcd, (uint8_t)ch_num, hhcd->hc[ch_num].urb_state);
 1299              		.loc 1 1289 0
 1300 01a2 0223     		movs	r3, #2
 1301 01a4 A360     		str	r3, [r4, #8]
1290:Drivers/STM32L4xx_HAL_Driver/Src/stm32l4xx_hal_hcd.c ****   }
 1302              		.loc 1 1290 0
 1303 01a6 05EB8502 		add	r2, r5, r5, lsl #2
 1304 01aa D300     		lsls	r3, r2, #3
 1305 01ac 3344     		add	r3, r3, r6
 1306 01ae 93F85C20 		ldrb	r2, [r3, #92]	@ zero_extendqisi2
 1307 01b2 2946     		mov	r1, r5
 1308 01b4 3046     		mov	r0, r6
 1309 01b6 FFF7FEFF 		bl	HAL_HCD_HC_NotifyURBChange_Callback
 1310              	.LVL104:
ARM GAS  /tmp/cckZR06T.s 			page 55


 1311 01ba C2E7     		b	.L77
 1312              	.L105:
1254:Drivers/STM32L4xx_HAL_Driver/Src/stm32l4xx_hal_hcd.c ****     }
 1313              		.loc 1 1254 0
 1314 01bc 05EB8502 		add	r2, r5, r5, lsl #2
 1315 01c0 D300     		lsls	r3, r2, #3
 1316 01c2 3344     		add	r3, r3, r6
 1317 01c4 0522     		movs	r2, #5
 1318 01c6 83F85C20 		strb	r2, [r3, #92]
 1319 01ca EAE7     		b	.L91
 1320              	.L93:
1259:Drivers/STM32L4xx_HAL_Driver/Src/stm32l4xx_hal_hcd.c ****       if (hhcd->hc[ch_num].ErrCnt > 3U)
 1321              		.loc 1 1259 0
 1322 01cc AA00     		lsls	r2, r5, #2
 1323 01ce 2A44     		add	r2, r2, r5
 1324 01d0 D300     		lsls	r3, r2, #3
 1325 01d2 3344     		add	r3, r3, r6
 1326 01d4 9A6D     		ldr	r2, [r3, #88]
 1327 01d6 0132     		adds	r2, r2, #1
 1328 01d8 9A65     		str	r2, [r3, #88]
1260:Drivers/STM32L4xx_HAL_Driver/Src/stm32l4xx_hal_hcd.c ****       {
 1329              		.loc 1 1260 0
 1330 01da 032A     		cmp	r2, #3
 1331 01dc 11D9     		bls	.L95
1262:Drivers/STM32L4xx_HAL_Driver/Src/stm32l4xx_hal_hcd.c ****         hhcd->hc[ch_num].urb_state = URB_ERROR;
 1332              		.loc 1 1262 0
 1333 01de AA00     		lsls	r2, r5, #2
 1334 01e0 2A44     		add	r2, r2, r5
 1335 01e2 D300     		lsls	r3, r2, #3
 1336 01e4 3344     		add	r3, r3, r6
 1337 01e6 0022     		movs	r2, #0
 1338 01e8 9A65     		str	r2, [r3, #88]
1263:Drivers/STM32L4xx_HAL_Driver/Src/stm32l4xx_hal_hcd.c ****       }
 1339              		.loc 1 1263 0
 1340 01ea 0422     		movs	r2, #4
 1341 01ec 83F85C20 		strb	r2, [r3, #92]
 1342              	.L96:
1271:Drivers/STM32L4xx_HAL_Driver/Src/stm32l4xx_hal_hcd.c ****       tmpreg &= ~USB_OTG_HCCHAR_CHDIS;
 1343              		.loc 1 1271 0
 1344 01f0 D7F80035 		ldr	r3, [r7, #1280]
 1345              	.LVL105:
1272:Drivers/STM32L4xx_HAL_Driver/Src/stm32l4xx_hal_hcd.c ****       tmpreg |= USB_OTG_HCCHAR_CHENA;
 1346              		.loc 1 1272 0
 1347 01f4 23F08043 		bic	r3, r3, #1073741824
 1348              	.LVL106:
1273:Drivers/STM32L4xx_HAL_Driver/Src/stm32l4xx_hal_hcd.c ****       USBx_HC(ch_num)->HCCHAR = tmpreg;
 1349              		.loc 1 1273 0
 1350 01f8 43F00043 		orr	r3, r3, #-2147483648
 1351              	.LVL107:
1274:Drivers/STM32L4xx_HAL_Driver/Src/stm32l4xx_hal_hcd.c ****     }
 1352              		.loc 1 1274 0
 1353 01fc C7F80035 		str	r3, [r7, #1280]
 1354 0200 CFE7     		b	.L91
 1355              	.LVL108:
 1356              	.L95:
1267:Drivers/STM32L4xx_HAL_Driver/Src/stm32l4xx_hal_hcd.c ****       }
 1357              		.loc 1 1267 0
ARM GAS  /tmp/cckZR06T.s 			page 56


 1358 0202 05EB8502 		add	r2, r5, r5, lsl #2
 1359 0206 D300     		lsls	r3, r2, #3
 1360 0208 3344     		add	r3, r3, r6
 1361 020a 0222     		movs	r2, #2
 1362 020c 83F85C20 		strb	r2, [r3, #92]
 1363 0210 EEE7     		b	.L96
 1364              	.L89:
1292:Drivers/STM32L4xx_HAL_Driver/Src/stm32l4xx_hal_hcd.c ****   {
 1365              		.loc 1 1292 0
 1366 0212 A368     		ldr	r3, [r4, #8]
 1367 0214 13F0800F 		tst	r3, #128
 1368 0218 19D1     		bne	.L106
1300:Drivers/STM32L4xx_HAL_Driver/Src/stm32l4xx_hal_hcd.c ****   {
 1369              		.loc 1 1300 0
 1370 021a A368     		ldr	r3, [r4, #8]
 1371 021c 13F0100F 		tst	r3, #16
 1372 0220 8FD0     		beq	.L77
1302:Drivers/STM32L4xx_HAL_Driver/Src/stm32l4xx_hal_hcd.c ****     {
 1373              		.loc 1 1302 0
 1374 0222 05EB8502 		add	r2, r5, r5, lsl #2
 1375 0226 D300     		lsls	r3, r2, #3
 1376 0228 3344     		add	r3, r3, r6
 1377 022a 93F83F30 		ldrb	r3, [r3, #63]	@ zero_extendqisi2
 1378 022e 032B     		cmp	r3, #3
 1379 0230 25D0     		beq	.L107
1308:Drivers/STM32L4xx_HAL_Driver/Src/stm32l4xx_hal_hcd.c ****              (hhcd->hc[ch_num].ep_type == EP_TYPE_BULK))
 1380              		.loc 1 1308 0
 1381 0232 0BB1     		cbz	r3, .L100
1308:Drivers/STM32L4xx_HAL_Driver/Src/stm32l4xx_hal_hcd.c ****              (hhcd->hc[ch_num].ep_type == EP_TYPE_BULK))
 1382              		.loc 1 1308 0 is_stmt 0 discriminator 1
 1383 0234 022B     		cmp	r3, #2
 1384 0236 07D1     		bne	.L99
 1385              	.L100:
1311:Drivers/STM32L4xx_HAL_Driver/Src/stm32l4xx_hal_hcd.c ****       if (hhcd->Init.dma_enable == 0U)
 1386              		.loc 1 1311 0 is_stmt 1
 1387 0238 05EB8502 		add	r2, r5, r5, lsl #2
 1388 023c D300     		lsls	r3, r2, #3
 1389 023e 3344     		add	r3, r3, r6
 1390 0240 0022     		movs	r2, #0
 1391 0242 9A65     		str	r2, [r3, #88]
1312:Drivers/STM32L4xx_HAL_Driver/Src/stm32l4xx_hal_hcd.c ****       {
 1392              		.loc 1 1312 0
 1393 0244 3369     		ldr	r3, [r6, #16]
 1394 0246 4BB3     		cbz	r3, .L108
 1395              	.L99:
1323:Drivers/STM32L4xx_HAL_Driver/Src/stm32l4xx_hal_hcd.c ****   }
 1396              		.loc 1 1323 0
 1397 0248 1023     		movs	r3, #16
 1398 024a A360     		str	r3, [r4, #8]
1329:Drivers/STM32L4xx_HAL_Driver/Src/stm32l4xx_hal_hcd.c **** 
 1399              		.loc 1 1329 0
 1400 024c 79E7     		b	.L77
 1401              	.L106:
1294:Drivers/STM32L4xx_HAL_Driver/Src/stm32l4xx_hal_hcd.c ****     hhcd->hc[ch_num].ErrCnt++;
 1402              		.loc 1 1294 0
 1403 024e E368     		ldr	r3, [r4, #12]
 1404 0250 43F00203 		orr	r3, r3, #2
ARM GAS  /tmp/cckZR06T.s 			page 57


 1405 0254 E360     		str	r3, [r4, #12]
1295:Drivers/STM32L4xx_HAL_Driver/Src/stm32l4xx_hal_hcd.c ****     hhcd->hc[ch_num].state = HC_XACTERR;
 1406              		.loc 1 1295 0
 1407 0256 AB00     		lsls	r3, r5, #2
 1408 0258 5919     		adds	r1, r3, r5
 1409 025a CA00     		lsls	r2, r1, #3
 1410 025c 3244     		add	r2, r2, r6
 1411 025e 916D     		ldr	r1, [r2, #88]
 1412 0260 0131     		adds	r1, r1, #1
 1413 0262 9165     		str	r1, [r2, #88]
1296:Drivers/STM32L4xx_HAL_Driver/Src/stm32l4xx_hal_hcd.c ****     (void)USB_HC_Halt(hhcd->Instance, (uint8_t)ch_num);
 1414              		.loc 1 1296 0
 1415 0264 2B44     		add	r3, r3, r5
 1416 0266 DA00     		lsls	r2, r3, #3
 1417 0268 3244     		add	r2, r2, r6
 1418 026a 0623     		movs	r3, #6
 1419 026c 82F85D30 		strb	r3, [r2, #93]
1297:Drivers/STM32L4xx_HAL_Driver/Src/stm32l4xx_hal_hcd.c ****     __HAL_HCD_CLEAR_HC_INT(ch_num, USB_OTG_HCINT_TXERR);
 1420              		.loc 1 1297 0
 1421 0270 2946     		mov	r1, r5
 1422 0272 3068     		ldr	r0, [r6]
 1423 0274 FFF7FEFF 		bl	USB_HC_Halt
 1424              	.LVL109:
1298:Drivers/STM32L4xx_HAL_Driver/Src/stm32l4xx_hal_hcd.c ****   }
 1425              		.loc 1 1298 0
 1426 0278 8023     		movs	r3, #128
 1427 027a A360     		str	r3, [r4, #8]
 1428 027c 61E7     		b	.L77
 1429              	.L107:
1304:Drivers/STM32L4xx_HAL_Driver/Src/stm32l4xx_hal_hcd.c ****       __HAL_HCD_UNMASK_HALT_HC_INT(ch_num);
 1430              		.loc 1 1304 0
 1431 027e 05EB8502 		add	r2, r5, r5, lsl #2
 1432 0282 D300     		lsls	r3, r2, #3
 1433 0284 3344     		add	r3, r3, r6
 1434 0286 0022     		movs	r2, #0
 1435 0288 9A65     		str	r2, [r3, #88]
1305:Drivers/STM32L4xx_HAL_Driver/Src/stm32l4xx_hal_hcd.c ****       (void)USB_HC_Halt(hhcd->Instance, (uint8_t)ch_num);
 1436              		.loc 1 1305 0
 1437 028a E368     		ldr	r3, [r4, #12]
 1438 028c 43F00203 		orr	r3, r3, #2
 1439 0290 E360     		str	r3, [r4, #12]
1306:Drivers/STM32L4xx_HAL_Driver/Src/stm32l4xx_hal_hcd.c ****     }
 1440              		.loc 1 1306 0
 1441 0292 2946     		mov	r1, r5
 1442 0294 3068     		ldr	r0, [r6]
 1443 0296 FFF7FEFF 		bl	USB_HC_Halt
 1444              	.LVL110:
 1445 029a D5E7     		b	.L99
 1446              	.L108:
1314:Drivers/STM32L4xx_HAL_Driver/Src/stm32l4xx_hal_hcd.c ****         __HAL_HCD_UNMASK_HALT_HC_INT(ch_num);
 1447              		.loc 1 1314 0
 1448 029c 05EB8502 		add	r2, r5, r5, lsl #2
 1449 02a0 D300     		lsls	r3, r2, #3
 1450 02a2 3344     		add	r3, r3, r6
 1451 02a4 0322     		movs	r2, #3
 1452 02a6 83F85D20 		strb	r2, [r3, #93]
1315:Drivers/STM32L4xx_HAL_Driver/Src/stm32l4xx_hal_hcd.c ****         (void)USB_HC_Halt(hhcd->Instance, (uint8_t)ch_num);
ARM GAS  /tmp/cckZR06T.s 			page 58


 1453              		.loc 1 1315 0
 1454 02aa E368     		ldr	r3, [r4, #12]
 1455 02ac 43F00203 		orr	r3, r3, #2
 1456 02b0 E360     		str	r3, [r4, #12]
1316:Drivers/STM32L4xx_HAL_Driver/Src/stm32l4xx_hal_hcd.c ****       }
 1457              		.loc 1 1316 0
 1458 02b2 2946     		mov	r1, r5
 1459 02b4 3068     		ldr	r0, [r6]
 1460 02b6 FFF7FEFF 		bl	USB_HC_Halt
 1461              	.LVL111:
 1462 02ba C5E7     		b	.L99
 1463              		.cfi_endproc
 1464              	.LFE146:
 1466              		.section	.text.HCD_HC_OUT_IRQHandler,"ax",%progbits
 1467              		.align	1
 1468              		.syntax unified
 1469              		.thumb
 1470              		.thumb_func
 1471              		.fpu fpv4-sp-d16
 1473              	HCD_HC_OUT_IRQHandler:
 1474              	.LFB147:
1339:Drivers/STM32L4xx_HAL_Driver/Src/stm32l4xx_hal_hcd.c ****   USB_OTG_GlobalTypeDef *USBx = hhcd->Instance;
 1475              		.loc 1 1339 0
 1476              		.cfi_startproc
 1477              		@ args = 0, pretend = 0, frame = 0
 1478              		@ frame_needed = 0, uses_anonymous_args = 0
 1479              	.LVL112:
 1480 0000 F8B5     		push	{r3, r4, r5, r6, r7, lr}
 1481              	.LCFI20:
 1482              		.cfi_def_cfa_offset 24
 1483              		.cfi_offset 3, -24
 1484              		.cfi_offset 4, -20
 1485              		.cfi_offset 5, -16
 1486              		.cfi_offset 6, -12
 1487              		.cfi_offset 7, -8
 1488              		.cfi_offset 14, -4
1340:Drivers/STM32L4xx_HAL_Driver/Src/stm32l4xx_hal_hcd.c ****   uint32_t USBx_BASE = (uint32_t)USBx;
 1489              		.loc 1 1340 0
 1490 0002 0368     		ldr	r3, [r0]
 1491              	.LVL113:
1345:Drivers/STM32L4xx_HAL_Driver/Src/stm32l4xx_hal_hcd.c ****   {
 1492              		.loc 1 1345 0
 1493 0004 03EB4113 		add	r3, r3, r1, lsl #5
 1494              	.LVL114:
 1495 0008 03F5A064 		add	r4, r3, #1280
 1496 000c A268     		ldr	r2, [r4, #8]
 1497 000e 12F0040F 		tst	r2, #4
 1498 0012 24D1     		bne	.L130
 1499 0014 0E46     		mov	r6, r1
 1500 0016 0546     		mov	r5, r0
1350:Drivers/STM32L4xx_HAL_Driver/Src/stm32l4xx_hal_hcd.c ****   {
 1501              		.loc 1 1350 0
 1502 0018 A268     		ldr	r2, [r4, #8]
 1503 001a 12F0200F 		tst	r2, #32
 1504 001e 25D0     		beq	.L112
1352:Drivers/STM32L4xx_HAL_Driver/Src/stm32l4xx_hal_hcd.c **** 
 1505              		.loc 1 1352 0
ARM GAS  /tmp/cckZR06T.s 			page 59


 1506 0020 2023     		movs	r3, #32
 1507 0022 A360     		str	r3, [r4, #8]
 1508              	.LVL115:
1354:Drivers/STM32L4xx_HAL_Driver/Src/stm32l4xx_hal_hcd.c ****     {
 1509              		.loc 1 1354 0
 1510 0024 01EB8102 		add	r2, r1, r1, lsl #2
 1511 0028 D300     		lsls	r3, r2, #3
 1512 002a 1A46     		mov	r2, r3
 1513 002c 0344     		add	r3, r3, r0
 1514 002e 93F83D30 		ldrb	r3, [r3, #61]	@ zero_extendqisi2
 1515 0032 012B     		cmp	r3, #1
 1516 0034 19D1     		bne	.L109
1356:Drivers/STM32L4xx_HAL_Driver/Src/stm32l4xx_hal_hcd.c ****       hhcd->hc[ch_num].urb_state  = URB_NOTREADY;
 1517              		.loc 1 1356 0
 1518 0036 8B00     		lsls	r3, r1, #2
 1519 0038 0244     		add	r2, r2, r0
 1520 003a 0021     		movs	r1, #0
 1521              	.LVL116:
 1522 003c 82F83D10 		strb	r1, [r2, #61]
1357:Drivers/STM32L4xx_HAL_Driver/Src/stm32l4xx_hal_hcd.c ****       __HAL_HCD_UNMASK_HALT_HC_INT(ch_num);
 1523              		.loc 1 1357 0
 1524 0040 3344     		add	r3, r3, r6
 1525 0042 DA00     		lsls	r2, r3, #3
 1526 0044 0244     		add	r2, r2, r0
 1527 0046 0223     		movs	r3, #2
 1528 0048 82F85C30 		strb	r3, [r2, #92]
1358:Drivers/STM32L4xx_HAL_Driver/Src/stm32l4xx_hal_hcd.c ****       (void)USB_HC_Halt(hhcd->Instance, (uint8_t)ch_num);
 1529              		.loc 1 1358 0
 1530 004c E368     		ldr	r3, [r4, #12]
 1531 004e 43F00203 		orr	r3, r3, #2
 1532 0052 E360     		str	r3, [r4, #12]
1359:Drivers/STM32L4xx_HAL_Driver/Src/stm32l4xx_hal_hcd.c ****     }
 1533              		.loc 1 1359 0
 1534 0054 3146     		mov	r1, r6
 1535 0056 0068     		ldr	r0, [r0]
 1536              	.LVL117:
 1537 0058 FFF7FEFF 		bl	USB_HC_Halt
 1538              	.LVL118:
 1539 005c 05E0     		b	.L109
 1540              	.LVL119:
 1541              	.L130:
1347:Drivers/STM32L4xx_HAL_Driver/Src/stm32l4xx_hal_hcd.c ****     __HAL_HCD_UNMASK_HALT_HC_INT(ch_num);
 1542              		.loc 1 1347 0
 1543 005e 0423     		movs	r3, #4
 1544 0060 A360     		str	r3, [r4, #8]
 1545              	.LVL120:
1348:Drivers/STM32L4xx_HAL_Driver/Src/stm32l4xx_hal_hcd.c ****   }
 1546              		.loc 1 1348 0
 1547 0062 E368     		ldr	r3, [r4, #12]
 1548 0064 43F00203 		orr	r3, r3, #2
 1549 0068 E360     		str	r3, [r4, #12]
 1550              	.LVL121:
 1551              	.L109:
1480:Drivers/STM32L4xx_HAL_Driver/Src/stm32l4xx_hal_hcd.c **** 
 1552              		.loc 1 1480 0
 1553 006a F8BD     		pop	{r3, r4, r5, r6, r7, pc}
 1554              	.LVL122:
ARM GAS  /tmp/cckZR06T.s 			page 60


 1555              	.L112:
1362:Drivers/STM32L4xx_HAL_Driver/Src/stm32l4xx_hal_hcd.c ****   {
 1556              		.loc 1 1362 0
 1557 006c A268     		ldr	r2, [r4, #8]
 1558 006e 12F0400F 		tst	r2, #64
 1559 0072 34D1     		bne	.L131
1371:Drivers/STM32L4xx_HAL_Driver/Src/stm32l4xx_hal_hcd.c ****   {
 1560              		.loc 1 1371 0
 1561 0074 A268     		ldr	r2, [r4, #8]
 1562 0076 12F4007F 		tst	r2, #512
 1563 007a 4AD1     		bne	.L132
1377:Drivers/STM32L4xx_HAL_Driver/Src/stm32l4xx_hal_hcd.c ****   {
 1564              		.loc 1 1377 0
 1565 007c A268     		ldr	r2, [r4, #8]
 1566 007e 12F0010F 		tst	r2, #1
 1567 0082 51D1     		bne	.L133
1385:Drivers/STM32L4xx_HAL_Driver/Src/stm32l4xx_hal_hcd.c ****   {
 1568              		.loc 1 1385 0
 1569 0084 A268     		ldr	r2, [r4, #8]
 1570 0086 12F0080F 		tst	r2, #8
 1571 008a 62D1     		bne	.L134
1392:Drivers/STM32L4xx_HAL_Driver/Src/stm32l4xx_hal_hcd.c ****   {
 1572              		.loc 1 1392 0
 1573 008c A268     		ldr	r2, [r4, #8]
 1574 008e 12F0100F 		tst	r2, #16
 1575 0092 6FD0     		beq	.L117
1394:Drivers/STM32L4xx_HAL_Driver/Src/stm32l4xx_hal_hcd.c ****     hhcd->hc[ch_num].state = HC_NAK;
 1576              		.loc 1 1394 0
 1577 0094 8A00     		lsls	r2, r1, #2
 1578 0096 0A44     		add	r2, r2, r1
 1579 0098 D300     		lsls	r3, r2, #3
 1580 009a 0344     		add	r3, r3, r0
 1581 009c 0022     		movs	r2, #0
 1582 009e 9A65     		str	r2, [r3, #88]
 1583              	.LVL123:
1395:Drivers/STM32L4xx_HAL_Driver/Src/stm32l4xx_hal_hcd.c **** 
 1584              		.loc 1 1395 0
 1585 00a0 0322     		movs	r2, #3
 1586 00a2 83F85D20 		strb	r2, [r3, #93]
1397:Drivers/STM32L4xx_HAL_Driver/Src/stm32l4xx_hal_hcd.c ****     {
 1587              		.loc 1 1397 0
 1588 00a6 93F83D30 		ldrb	r3, [r3, #61]	@ zero_extendqisi2
 1589 00aa 6BB9     		cbnz	r3, .L118
1399:Drivers/STM32L4xx_HAL_Driver/Src/stm32l4xx_hal_hcd.c ****       {
 1590              		.loc 1 1399 0
 1591 00ac 01EB8102 		add	r2, r1, r1, lsl #2
 1592 00b0 D300     		lsls	r3, r2, #3
 1593 00b2 0344     		add	r3, r3, r0
 1594 00b4 93F83C30 		ldrb	r3, [r3, #60]	@ zero_extendqisi2
 1595 00b8 33B9     		cbnz	r3, .L118
1401:Drivers/STM32L4xx_HAL_Driver/Src/stm32l4xx_hal_hcd.c ****       }
 1596              		.loc 1 1401 0
 1597 00ba 01EB8102 		add	r2, r1, r1, lsl #2
 1598 00be D300     		lsls	r3, r2, #3
 1599 00c0 0344     		add	r3, r3, r0
 1600 00c2 0122     		movs	r2, #1
 1601 00c4 83F83D20 		strb	r2, [r3, #61]
ARM GAS  /tmp/cckZR06T.s 			page 61


 1602              	.L118:
1405:Drivers/STM32L4xx_HAL_Driver/Src/stm32l4xx_hal_hcd.c ****     (void)USB_HC_Halt(hhcd->Instance, (uint8_t)ch_num);
 1603              		.loc 1 1405 0
 1604 00c8 E368     		ldr	r3, [r4, #12]
 1605 00ca 43F00203 		orr	r3, r3, #2
 1606 00ce E360     		str	r3, [r4, #12]
1406:Drivers/STM32L4xx_HAL_Driver/Src/stm32l4xx_hal_hcd.c ****     __HAL_HCD_CLEAR_HC_INT(ch_num, USB_OTG_HCINT_NAK);
 1607              		.loc 1 1406 0
 1608 00d0 3146     		mov	r1, r6
 1609              	.LVL124:
 1610 00d2 2868     		ldr	r0, [r5]
 1611              	.LVL125:
 1612 00d4 FFF7FEFF 		bl	USB_HC_Halt
 1613              	.LVL126:
1407:Drivers/STM32L4xx_HAL_Driver/Src/stm32l4xx_hal_hcd.c ****   }
 1614              		.loc 1 1407 0
 1615 00d8 1023     		movs	r3, #16
 1616 00da A360     		str	r3, [r4, #8]
 1617 00dc C5E7     		b	.L109
 1618              	.LVL127:
 1619              	.L131:
1364:Drivers/STM32L4xx_HAL_Driver/Src/stm32l4xx_hal_hcd.c ****     hhcd->hc[ch_num].do_ping = 1U;
 1620              		.loc 1 1364 0
 1621 00de 8B00     		lsls	r3, r1, #2
 1622 00e0 5918     		adds	r1, r3, r1
 1623              	.LVL128:
 1624 00e2 CA00     		lsls	r2, r1, #3
 1625 00e4 0244     		add	r2, r2, r0
 1626 00e6 0421     		movs	r1, #4
 1627 00e8 82F85D10 		strb	r1, [r2, #93]
 1628              	.LVL129:
1365:Drivers/STM32L4xx_HAL_Driver/Src/stm32l4xx_hal_hcd.c ****     hhcd->hc[ch_num].ErrCnt = 0U;
 1629              		.loc 1 1365 0
 1630 00ec 0121     		movs	r1, #1
 1631 00ee 82F83D10 		strb	r1, [r2, #61]
1366:Drivers/STM32L4xx_HAL_Driver/Src/stm32l4xx_hal_hcd.c ****     __HAL_HCD_UNMASK_HALT_HC_INT(ch_num);
 1632              		.loc 1 1366 0
 1633 00f2 3344     		add	r3, r3, r6
 1634 00f4 DA00     		lsls	r2, r3, #3
 1635 00f6 0244     		add	r2, r2, r0
 1636 00f8 0023     		movs	r3, #0
 1637 00fa 9365     		str	r3, [r2, #88]
1367:Drivers/STM32L4xx_HAL_Driver/Src/stm32l4xx_hal_hcd.c ****     (void)USB_HC_Halt(hhcd->Instance, (uint8_t)ch_num);
 1638              		.loc 1 1367 0
 1639 00fc E368     		ldr	r3, [r4, #12]
 1640 00fe 43F00203 		orr	r3, r3, #2
 1641 0102 E360     		str	r3, [r4, #12]
1368:Drivers/STM32L4xx_HAL_Driver/Src/stm32l4xx_hal_hcd.c ****     __HAL_HCD_CLEAR_HC_INT(ch_num, USB_OTG_HCINT_NYET);
 1642              		.loc 1 1368 0
 1643 0104 3146     		mov	r1, r6
 1644 0106 0068     		ldr	r0, [r0]
 1645              	.LVL130:
 1646 0108 FFF7FEFF 		bl	USB_HC_Halt
 1647              	.LVL131:
1369:Drivers/STM32L4xx_HAL_Driver/Src/stm32l4xx_hal_hcd.c ****   }
 1648              		.loc 1 1369 0
 1649 010c 4023     		movs	r3, #64
ARM GAS  /tmp/cckZR06T.s 			page 62


 1650 010e A360     		str	r3, [r4, #8]
 1651 0110 ABE7     		b	.L109
 1652              	.LVL132:
 1653              	.L132:
1373:Drivers/STM32L4xx_HAL_Driver/Src/stm32l4xx_hal_hcd.c ****     (void)USB_HC_Halt(hhcd->Instance, (uint8_t)ch_num);
 1654              		.loc 1 1373 0
 1655 0112 E368     		ldr	r3, [r4, #12]
 1656 0114 43F00203 		orr	r3, r3, #2
 1657 0118 E360     		str	r3, [r4, #12]
 1658              	.LVL133:
1374:Drivers/STM32L4xx_HAL_Driver/Src/stm32l4xx_hal_hcd.c ****     __HAL_HCD_CLEAR_HC_INT(ch_num, USB_OTG_HCINT_FRMOR);
 1659              		.loc 1 1374 0
 1660 011a 0068     		ldr	r0, [r0]
 1661              	.LVL134:
 1662 011c FFF7FEFF 		bl	USB_HC_Halt
 1663              	.LVL135:
1375:Drivers/STM32L4xx_HAL_Driver/Src/stm32l4xx_hal_hcd.c ****   }
 1664              		.loc 1 1375 0
 1665 0120 4FF40073 		mov	r3, #512
 1666 0124 A360     		str	r3, [r4, #8]
 1667 0126 A0E7     		b	.L109
 1668              	.LVL136:
 1669              	.L133:
1379:Drivers/STM32L4xx_HAL_Driver/Src/stm32l4xx_hal_hcd.c ****     __HAL_HCD_UNMASK_HALT_HC_INT(ch_num);
 1670              		.loc 1 1379 0
 1671 0128 8F00     		lsls	r7, r1, #2
 1672 012a 7A18     		adds	r2, r7, r1
 1673 012c D300     		lsls	r3, r2, #3
 1674 012e 0344     		add	r3, r3, r0
 1675 0130 0022     		movs	r2, #0
 1676 0132 9A65     		str	r2, [r3, #88]
 1677              	.LVL137:
1380:Drivers/STM32L4xx_HAL_Driver/Src/stm32l4xx_hal_hcd.c ****     (void)USB_HC_Halt(hhcd->Instance, (uint8_t)ch_num);
 1678              		.loc 1 1380 0
 1679 0134 E368     		ldr	r3, [r4, #12]
 1680 0136 43F00203 		orr	r3, r3, #2
 1681 013a E360     		str	r3, [r4, #12]
1381:Drivers/STM32L4xx_HAL_Driver/Src/stm32l4xx_hal_hcd.c ****     __HAL_HCD_CLEAR_HC_INT(ch_num, USB_OTG_HCINT_XFRC);
 1682              		.loc 1 1381 0
 1683 013c 0068     		ldr	r0, [r0]
 1684              	.LVL138:
 1685 013e FFF7FEFF 		bl	USB_HC_Halt
 1686              	.LVL139:
1382:Drivers/STM32L4xx_HAL_Driver/Src/stm32l4xx_hal_hcd.c ****     hhcd->hc[ch_num].state = HC_XFRC;
 1687              		.loc 1 1382 0
 1688 0142 0123     		movs	r3, #1
 1689 0144 A360     		str	r3, [r4, #8]
1383:Drivers/STM32L4xx_HAL_Driver/Src/stm32l4xx_hal_hcd.c ****   }
 1690              		.loc 1 1383 0
 1691 0146 B919     		adds	r1, r7, r6
 1692 0148 C800     		lsls	r0, r1, #3
 1693 014a 2844     		add	r0, r0, r5
 1694 014c 80F85D30 		strb	r3, [r0, #93]
 1695 0150 8BE7     		b	.L109
 1696              	.LVL140:
 1697              	.L134:
1387:Drivers/STM32L4xx_HAL_Driver/Src/stm32l4xx_hal_hcd.c ****     __HAL_HCD_UNMASK_HALT_HC_INT(ch_num);
ARM GAS  /tmp/cckZR06T.s 			page 63


 1698              		.loc 1 1387 0
 1699 0152 0823     		movs	r3, #8
 1700 0154 A360     		str	r3, [r4, #8]
 1701              	.LVL141:
1388:Drivers/STM32L4xx_HAL_Driver/Src/stm32l4xx_hal_hcd.c ****     (void)USB_HC_Halt(hhcd->Instance, (uint8_t)ch_num);
 1702              		.loc 1 1388 0
 1703 0156 E368     		ldr	r3, [r4, #12]
 1704 0158 43F00203 		orr	r3, r3, #2
 1705 015c E360     		str	r3, [r4, #12]
1389:Drivers/STM32L4xx_HAL_Driver/Src/stm32l4xx_hal_hcd.c ****     hhcd->hc[ch_num].state = HC_STALL;
 1706              		.loc 1 1389 0
 1707 015e 0068     		ldr	r0, [r0]
 1708              	.LVL142:
 1709 0160 FFF7FEFF 		bl	USB_HC_Halt
 1710              	.LVL143:
1390:Drivers/STM32L4xx_HAL_Driver/Src/stm32l4xx_hal_hcd.c ****   }
 1711              		.loc 1 1390 0
 1712 0164 06EB8601 		add	r1, r6, r6, lsl #2
 1713 0168 C800     		lsls	r0, r1, #3
 1714 016a 2844     		add	r0, r0, r5
 1715 016c 0523     		movs	r3, #5
 1716 016e 80F85D30 		strb	r3, [r0, #93]
 1717 0172 7AE7     		b	.L109
 1718              	.LVL144:
 1719              	.L117:
1409:Drivers/STM32L4xx_HAL_Driver/Src/stm32l4xx_hal_hcd.c ****   {
 1720              		.loc 1 1409 0
 1721 0174 A268     		ldr	r2, [r4, #8]
 1722 0176 12F0800F 		tst	r2, #128
 1723 017a 39D1     		bne	.L135
1416:Drivers/STM32L4xx_HAL_Driver/Src/stm32l4xx_hal_hcd.c ****   {
 1724              		.loc 1 1416 0
 1725 017c A268     		ldr	r2, [r4, #8]
 1726 017e 12F4806F 		tst	r2, #1024
 1727 0182 46D1     		bne	.L136
1424:Drivers/STM32L4xx_HAL_Driver/Src/stm32l4xx_hal_hcd.c ****   {
 1728              		.loc 1 1424 0
 1729 0184 A268     		ldr	r2, [r4, #8]
 1730 0186 12F0020F 		tst	r2, #2
 1731 018a 3FF46EAF 		beq	.L109
1426:Drivers/STM32L4xx_HAL_Driver/Src/stm32l4xx_hal_hcd.c **** 
 1732              		.loc 1 1426 0
 1733 018e E268     		ldr	r2, [r4, #12]
 1734 0190 22F00202 		bic	r2, r2, #2
 1735 0194 E260     		str	r2, [r4, #12]
 1736              	.LVL145:
1428:Drivers/STM32L4xx_HAL_Driver/Src/stm32l4xx_hal_hcd.c ****     {
 1737              		.loc 1 1428 0
 1738 0196 01EB8101 		add	r1, r1, r1, lsl #2
 1739              	.LVL146:
 1740 019a CA00     		lsls	r2, r1, #3
 1741 019c 1146     		mov	r1, r2
 1742 019e 0244     		add	r2, r2, r0
 1743 01a0 92F85D20 		ldrb	r2, [r2, #93]	@ zero_extendqisi2
 1744 01a4 012A     		cmp	r2, #1
 1745 01a6 48D0     		beq	.L137
1436:Drivers/STM32L4xx_HAL_Driver/Src/stm32l4xx_hal_hcd.c ****     {
ARM GAS  /tmp/cckZR06T.s 			page 64


 1746              		.loc 1 1436 0
 1747 01a8 032A     		cmp	r2, #3
 1748 01aa 65D0     		beq	.L138
1440:Drivers/STM32L4xx_HAL_Driver/Src/stm32l4xx_hal_hcd.c ****     {
 1749              		.loc 1 1440 0
 1750 01ac 042A     		cmp	r2, #4
 1751 01ae 6BD0     		beq	.L139
1444:Drivers/STM32L4xx_HAL_Driver/Src/stm32l4xx_hal_hcd.c ****     {
 1752              		.loc 1 1444 0
 1753 01b0 052A     		cmp	r2, #5
 1754 01b2 71D0     		beq	.L140
1448:Drivers/STM32L4xx_HAL_Driver/Src/stm32l4xx_hal_hcd.c ****              (hhcd->hc[ch_num].state == HC_DATATGLERR))
 1755              		.loc 1 1448 0
 1756 01b4 062A     		cmp	r2, #6
 1757 01b6 01D0     		beq	.L126
1448:Drivers/STM32L4xx_HAL_Driver/Src/stm32l4xx_hal_hcd.c ****              (hhcd->hc[ch_num].state == HC_DATATGLERR))
 1758              		.loc 1 1448 0 is_stmt 0 discriminator 1
 1759 01b8 082A     		cmp	r2, #8
 1760 01ba 47D1     		bne	.L122
 1761              	.L126:
1451:Drivers/STM32L4xx_HAL_Driver/Src/stm32l4xx_hal_hcd.c ****       if (hhcd->hc[ch_num].ErrCnt > 3U)
 1762              		.loc 1 1451 0 is_stmt 1
 1763 01bc B100     		lsls	r1, r6, #2
 1764 01be 3144     		add	r1, r1, r6
 1765 01c0 CA00     		lsls	r2, r1, #3
 1766 01c2 2A44     		add	r2, r2, r5
 1767 01c4 916D     		ldr	r1, [r2, #88]
 1768 01c6 0131     		adds	r1, r1, #1
 1769 01c8 9165     		str	r1, [r2, #88]
1452:Drivers/STM32L4xx_HAL_Driver/Src/stm32l4xx_hal_hcd.c ****       {
 1770              		.loc 1 1452 0
 1771 01ca 0329     		cmp	r1, #3
 1772 01cc 6AD9     		bls	.L127
1454:Drivers/STM32L4xx_HAL_Driver/Src/stm32l4xx_hal_hcd.c ****         hhcd->hc[ch_num].urb_state = URB_ERROR;
 1773              		.loc 1 1454 0
 1774 01ce 2822     		movs	r2, #40
 1775 01d0 02FB0652 		mla	r2, r2, r6, r5
 1776 01d4 0021     		movs	r1, #0
 1777 01d6 9165     		str	r1, [r2, #88]
1455:Drivers/STM32L4xx_HAL_Driver/Src/stm32l4xx_hal_hcd.c ****       }
 1778              		.loc 1 1455 0
 1779 01d8 0421     		movs	r1, #4
 1780 01da 82F85C10 		strb	r1, [r2, #92]
 1781              	.L128:
1463:Drivers/STM32L4xx_HAL_Driver/Src/stm32l4xx_hal_hcd.c ****       tmpreg &= ~USB_OTG_HCCHAR_CHDIS;
 1782              		.loc 1 1463 0
 1783 01de D3F80025 		ldr	r2, [r3, #1280]
 1784              	.LVL147:
1464:Drivers/STM32L4xx_HAL_Driver/Src/stm32l4xx_hal_hcd.c ****       tmpreg |= USB_OTG_HCCHAR_CHENA;
 1785              		.loc 1 1464 0
 1786 01e2 22F08042 		bic	r2, r2, #1073741824
 1787              	.LVL148:
1465:Drivers/STM32L4xx_HAL_Driver/Src/stm32l4xx_hal_hcd.c ****       USBx_HC(ch_num)->HCCHAR = tmpreg;
 1788              		.loc 1 1465 0
 1789 01e6 42F00042 		orr	r2, r2, #-2147483648
 1790              	.LVL149:
1466:Drivers/STM32L4xx_HAL_Driver/Src/stm32l4xx_hal_hcd.c ****     }
ARM GAS  /tmp/cckZR06T.s 			page 65


 1791              		.loc 1 1466 0
 1792 01ea C3F80025 		str	r2, [r3, #1280]
 1793 01ee 2DE0     		b	.L122
 1794              	.LVL150:
 1795              	.L135:
1411:Drivers/STM32L4xx_HAL_Driver/Src/stm32l4xx_hal_hcd.c ****     (void)USB_HC_Halt(hhcd->Instance, (uint8_t)ch_num);
 1796              		.loc 1 1411 0
 1797 01f0 E368     		ldr	r3, [r4, #12]
 1798 01f2 43F00203 		orr	r3, r3, #2
 1799 01f6 E360     		str	r3, [r4, #12]
 1800              	.LVL151:
1412:Drivers/STM32L4xx_HAL_Driver/Src/stm32l4xx_hal_hcd.c ****     hhcd->hc[ch_num].state = HC_XACTERR;
 1801              		.loc 1 1412 0
 1802 01f8 0068     		ldr	r0, [r0]
 1803              	.LVL152:
 1804 01fa FFF7FEFF 		bl	USB_HC_Halt
 1805              	.LVL153:
1413:Drivers/STM32L4xx_HAL_Driver/Src/stm32l4xx_hal_hcd.c ****     __HAL_HCD_CLEAR_HC_INT(ch_num, USB_OTG_HCINT_TXERR);
 1806              		.loc 1 1413 0
 1807 01fe 06EB8601 		add	r1, r6, r6, lsl #2
 1808 0202 CB00     		lsls	r3, r1, #3
 1809 0204 2B44     		add	r3, r3, r5
 1810 0206 0622     		movs	r2, #6
 1811 0208 83F85D20 		strb	r2, [r3, #93]
1414:Drivers/STM32L4xx_HAL_Driver/Src/stm32l4xx_hal_hcd.c ****   }
 1812              		.loc 1 1414 0
 1813 020c 8023     		movs	r3, #128
 1814 020e A360     		str	r3, [r4, #8]
 1815 0210 2BE7     		b	.L109
 1816              	.LVL154:
 1817              	.L136:
1418:Drivers/STM32L4xx_HAL_Driver/Src/stm32l4xx_hal_hcd.c ****     (void)USB_HC_Halt(hhcd->Instance, (uint8_t)ch_num);
 1818              		.loc 1 1418 0
 1819 0212 E368     		ldr	r3, [r4, #12]
 1820 0214 43F00203 		orr	r3, r3, #2
 1821 0218 E360     		str	r3, [r4, #12]
 1822              	.LVL155:
1419:Drivers/STM32L4xx_HAL_Driver/Src/stm32l4xx_hal_hcd.c ****     __HAL_HCD_CLEAR_HC_INT(ch_num, USB_OTG_HCINT_NAK);
 1823              		.loc 1 1419 0
 1824 021a 0068     		ldr	r0, [r0]
 1825              	.LVL156:
 1826 021c FFF7FEFF 		bl	USB_HC_Halt
 1827              	.LVL157:
1420:Drivers/STM32L4xx_HAL_Driver/Src/stm32l4xx_hal_hcd.c ****     __HAL_HCD_CLEAR_HC_INT(ch_num, USB_OTG_HCINT_DTERR);
 1828              		.loc 1 1420 0
 1829 0220 1023     		movs	r3, #16
 1830 0222 A360     		str	r3, [r4, #8]
1421:Drivers/STM32L4xx_HAL_Driver/Src/stm32l4xx_hal_hcd.c ****     hhcd->hc[ch_num].state = HC_DATATGLERR;
 1831              		.loc 1 1421 0
 1832 0224 4FF48063 		mov	r3, #1024
 1833 0228 A360     		str	r3, [r4, #8]
1422:Drivers/STM32L4xx_HAL_Driver/Src/stm32l4xx_hal_hcd.c ****   }
 1834              		.loc 1 1422 0
 1835 022a 06EB8601 		add	r1, r6, r6, lsl #2
 1836 022e CB00     		lsls	r3, r1, #3
 1837 0230 2B44     		add	r3, r3, r5
 1838 0232 0822     		movs	r2, #8
ARM GAS  /tmp/cckZR06T.s 			page 66


 1839 0234 83F85D20 		strb	r2, [r3, #93]
 1840 0238 17E7     		b	.L109
 1841              	.LVL158:
 1842              	.L137:
1430:Drivers/STM32L4xx_HAL_Driver/Src/stm32l4xx_hal_hcd.c ****       if (hhcd->hc[ch_num].ep_type == EP_TYPE_BULK)
 1843              		.loc 1 1430 0
 1844 023a 0B46     		mov	r3, r1
 1845 023c 0344     		add	r3, r3, r0
 1846 023e 0122     		movs	r2, #1
 1847 0240 83F85C20 		strb	r2, [r3, #92]
1431:Drivers/STM32L4xx_HAL_Driver/Src/stm32l4xx_hal_hcd.c ****       {
 1848              		.loc 1 1431 0
 1849 0244 93F83F30 		ldrb	r3, [r3, #63]	@ zero_extendqisi2
 1850 0248 022B     		cmp	r3, #2
 1851 024a 0CD0     		beq	.L141
 1852              	.L122:
1473:Drivers/STM32L4xx_HAL_Driver/Src/stm32l4xx_hal_hcd.c ****     HAL_HCD_HC_NotifyURBChange_Callback(hhcd, (uint8_t)ch_num, hhcd->hc[ch_num].urb_state);
 1853              		.loc 1 1473 0
 1854 024c 0223     		movs	r3, #2
 1855 024e A360     		str	r3, [r4, #8]
1474:Drivers/STM32L4xx_HAL_Driver/Src/stm32l4xx_hal_hcd.c ****   }
 1856              		.loc 1 1474 0
 1857 0250 06EB8602 		add	r2, r6, r6, lsl #2
 1858 0254 D300     		lsls	r3, r2, #3
 1859 0256 2B44     		add	r3, r3, r5
 1860 0258 93F85C20 		ldrb	r2, [r3, #92]	@ zero_extendqisi2
 1861 025c 3146     		mov	r1, r6
 1862 025e 2846     		mov	r0, r5
 1863              	.LVL159:
 1864 0260 FFF7FEFF 		bl	HAL_HCD_HC_NotifyURBChange_Callback
 1865              	.LVL160:
1480:Drivers/STM32L4xx_HAL_Driver/Src/stm32l4xx_hal_hcd.c **** 
 1866              		.loc 1 1480 0
 1867 0264 01E7     		b	.L109
 1868              	.LVL161:
 1869              	.L141:
1433:Drivers/STM32L4xx_HAL_Driver/Src/stm32l4xx_hal_hcd.c ****       }
 1870              		.loc 1 1433 0
 1871 0266 0B46     		mov	r3, r1
 1872 0268 0344     		add	r3, r3, r0
 1873 026a 93F85120 		ldrb	r2, [r3, #81]	@ zero_extendqisi2
 1874 026e 82F00102 		eor	r2, r2, #1
 1875 0272 83F85120 		strb	r2, [r3, #81]
 1876 0276 E9E7     		b	.L122
 1877              	.L138:
1438:Drivers/STM32L4xx_HAL_Driver/Src/stm32l4xx_hal_hcd.c ****     }
 1878              		.loc 1 1438 0
 1879 0278 06EB8602 		add	r2, r6, r6, lsl #2
 1880 027c D300     		lsls	r3, r2, #3
 1881 027e 0344     		add	r3, r3, r0
 1882 0280 0222     		movs	r2, #2
 1883 0282 83F85C20 		strb	r2, [r3, #92]
 1884 0286 E1E7     		b	.L122
 1885              	.L139:
1442:Drivers/STM32L4xx_HAL_Driver/Src/stm32l4xx_hal_hcd.c ****     }
 1886              		.loc 1 1442 0
 1887 0288 06EB8602 		add	r2, r6, r6, lsl #2
ARM GAS  /tmp/cckZR06T.s 			page 67


 1888 028c D300     		lsls	r3, r2, #3
 1889 028e 0344     		add	r3, r3, r0
 1890 0290 0222     		movs	r2, #2
 1891 0292 83F85C20 		strb	r2, [r3, #92]
 1892 0296 D9E7     		b	.L122
 1893              	.L140:
1446:Drivers/STM32L4xx_HAL_Driver/Src/stm32l4xx_hal_hcd.c ****     }
 1894              		.loc 1 1446 0
 1895 0298 2823     		movs	r3, #40
 1896 029a 03FB0603 		mla	r3, r3, r6, r0
 1897 029e 83F85C20 		strb	r2, [r3, #92]
 1898 02a2 D3E7     		b	.L122
 1899              	.L127:
1459:Drivers/STM32L4xx_HAL_Driver/Src/stm32l4xx_hal_hcd.c ****       }
 1900              		.loc 1 1459 0
 1901 02a4 2822     		movs	r2, #40
 1902 02a6 02FB0652 		mla	r2, r2, r6, r5
 1903 02aa 0221     		movs	r1, #2
 1904 02ac 82F85C10 		strb	r1, [r2, #92]
 1905 02b0 95E7     		b	.L128
 1906              		.cfi_endproc
 1907              	.LFE147:
 1909              		.section	.text.HAL_HCD_IRQHandler,"ax",%progbits
 1910              		.align	1
 1911              		.global	HAL_HCD_IRQHandler
 1912              		.syntax unified
 1913              		.thumb
 1914              		.thumb_func
 1915              		.fpu fpv4-sp-d16
 1917              	HAL_HCD_IRQHandler:
 1918              	.LFB130:
 499:Drivers/STM32L4xx_HAL_Driver/Src/stm32l4xx_hal_hcd.c ****   USB_OTG_GlobalTypeDef *USBx = hhcd->Instance;
 1919              		.loc 1 499 0
 1920              		.cfi_startproc
 1921              		@ args = 0, pretend = 0, frame = 0
 1922              		@ frame_needed = 0, uses_anonymous_args = 0
 1923              	.LVL162:
 1924 0000 F8B5     		push	{r3, r4, r5, r6, r7, lr}
 1925              	.LCFI21:
 1926              		.cfi_def_cfa_offset 24
 1927              		.cfi_offset 3, -24
 1928              		.cfi_offset 4, -20
 1929              		.cfi_offset 5, -16
 1930              		.cfi_offset 6, -12
 1931              		.cfi_offset 7, -8
 1932              		.cfi_offset 14, -4
 1933 0002 0446     		mov	r4, r0
 500:Drivers/STM32L4xx_HAL_Driver/Src/stm32l4xx_hal_hcd.c ****   uint32_t USBx_BASE = (uint32_t)USBx;
 1934              		.loc 1 500 0
 1935 0004 0568     		ldr	r5, [r0]
 1936              	.LVL163:
 505:Drivers/STM32L4xx_HAL_Driver/Src/stm32l4xx_hal_hcd.c ****   {
 1937              		.loc 1 505 0
 1938 0006 2846     		mov	r0, r5
 1939              	.LVL164:
 1940 0008 FFF7FEFF 		bl	USB_GetMode
 1941              	.LVL165:
ARM GAS  /tmp/cckZR06T.s 			page 68


 1942 000c 0128     		cmp	r0, #1
 1943 000e 00D0     		beq	.L157
 1944              	.L142:
 605:Drivers/STM32L4xx_HAL_Driver/Src/stm32l4xx_hal_hcd.c **** 
 1945              		.loc 1 605 0
 1946 0010 F8BD     		pop	{r3, r4, r5, r6, r7, pc}
 1947              	.LVL166:
 1948              	.L157:
 508:Drivers/STM32L4xx_HAL_Driver/Src/stm32l4xx_hal_hcd.c ****     {
 1949              		.loc 1 508 0
 1950 0012 2068     		ldr	r0, [r4]
 1951 0014 FFF7FEFF 		bl	USB_ReadInterrupts
 1952              	.LVL167:
 1953 0018 0028     		cmp	r0, #0
 1954 001a F9D0     		beq	.L142
 513:Drivers/STM32L4xx_HAL_Driver/Src/stm32l4xx_hal_hcd.c ****     {
 1955              		.loc 1 513 0
 1956 001c 2068     		ldr	r0, [r4]
 1957 001e FFF7FEFF 		bl	USB_ReadInterrupts
 1958              	.LVL168:
 1959 0022 10F4001F 		tst	r0, #2097152
 1960 0026 03D0     		beq	.L144
 516:Drivers/STM32L4xx_HAL_Driver/Src/stm32l4xx_hal_hcd.c ****     }
 1961              		.loc 1 516 0
 1962 0028 2368     		ldr	r3, [r4]
 1963 002a 4FF40012 		mov	r2, #2097152
 1964 002e 5A61     		str	r2, [r3, #20]
 1965              	.L144:
 519:Drivers/STM32L4xx_HAL_Driver/Src/stm32l4xx_hal_hcd.c ****     {
 1966              		.loc 1 519 0
 1967 0030 2068     		ldr	r0, [r4]
 1968 0032 FFF7FEFF 		bl	USB_ReadInterrupts
 1969              	.LVL169:
 1970 0036 10F4801F 		tst	r0, #1048576
 1971 003a 03D0     		beq	.L145
 522:Drivers/STM32L4xx_HAL_Driver/Src/stm32l4xx_hal_hcd.c ****     }
 1972              		.loc 1 522 0
 1973 003c 2368     		ldr	r3, [r4]
 1974 003e 4FF48012 		mov	r2, #1048576
 1975 0042 5A61     		str	r2, [r3, #20]
 1976              	.L145:
 525:Drivers/STM32L4xx_HAL_Driver/Src/stm32l4xx_hal_hcd.c ****     {
 1977              		.loc 1 525 0
 1978 0044 2068     		ldr	r0, [r4]
 1979 0046 FFF7FEFF 		bl	USB_ReadInterrupts
 1980              	.LVL170:
 1981 004a 10F0806F 		tst	r0, #67108864
 1982 004e 03D0     		beq	.L146
 528:Drivers/STM32L4xx_HAL_Driver/Src/stm32l4xx_hal_hcd.c ****     }
 1983              		.loc 1 528 0
 1984 0050 2368     		ldr	r3, [r4]
 1985 0052 4FF08062 		mov	r2, #67108864
 1986 0056 5A61     		str	r2, [r3, #20]
 1987              	.L146:
 531:Drivers/STM32L4xx_HAL_Driver/Src/stm32l4xx_hal_hcd.c ****     {
 1988              		.loc 1 531 0
 1989 0058 2068     		ldr	r0, [r4]
ARM GAS  /tmp/cckZR06T.s 			page 69


 1990 005a FFF7FEFF 		bl	USB_ReadInterrupts
 1991              	.LVL171:
 1992 005e 10F0020F 		tst	r0, #2
 1993 0062 02D0     		beq	.L147
 534:Drivers/STM32L4xx_HAL_Driver/Src/stm32l4xx_hal_hcd.c ****     }
 1994              		.loc 1 534 0
 1995 0064 2368     		ldr	r3, [r4]
 1996 0066 0222     		movs	r2, #2
 1997 0068 5A61     		str	r2, [r3, #20]
 1998              	.L147:
 538:Drivers/STM32L4xx_HAL_Driver/Src/stm32l4xx_hal_hcd.c ****     {
 1999              		.loc 1 538 0
 2000 006a 2068     		ldr	r0, [r4]
 2001 006c FFF7FEFF 		bl	USB_ReadInterrupts
 2002              	.LVL172:
 2003 0070 10F0005F 		tst	r0, #536870912
 2004 0074 25D1     		bne	.L158
 2005              	.L148:
 557:Drivers/STM32L4xx_HAL_Driver/Src/stm32l4xx_hal_hcd.c ****     {
 2006              		.loc 1 557 0
 2007 0076 2068     		ldr	r0, [r4]
 2008 0078 FFF7FEFF 		bl	USB_ReadInterrupts
 2009              	.LVL173:
 2010 007c 10F0807F 		tst	r0, #16777216
 2011 0080 31D1     		bne	.L159
 2012              	.L149:
 563:Drivers/STM32L4xx_HAL_Driver/Src/stm32l4xx_hal_hcd.c ****     {
 2013              		.loc 1 563 0
 2014 0082 2068     		ldr	r0, [r4]
 2015 0084 FFF7FEFF 		bl	USB_ReadInterrupts
 2016              	.LVL174:
 2017 0088 10F0080F 		tst	r0, #8
 2018 008c 2FD1     		bne	.L160
 2019              	.L150:
 575:Drivers/STM32L4xx_HAL_Driver/Src/stm32l4xx_hal_hcd.c ****     {
 2020              		.loc 1 575 0
 2021 008e 2068     		ldr	r0, [r4]
 2022 0090 FFF7FEFF 		bl	USB_ReadInterrupts
 2023              	.LVL175:
 2024 0094 10F0007F 		tst	r0, #33554432
 2025 0098 30D1     		bne	.L161
 2026              	.L151:
 596:Drivers/STM32L4xx_HAL_Driver/Src/stm32l4xx_hal_hcd.c ****     {
 2027              		.loc 1 596 0
 2028 009a 2068     		ldr	r0, [r4]
 2029 009c FFF7FEFF 		bl	USB_ReadInterrupts
 2030              	.LVL176:
 2031 00a0 10F0100F 		tst	r0, #16
 2032 00a4 B4D0     		beq	.L142
 598:Drivers/STM32L4xx_HAL_Driver/Src/stm32l4xx_hal_hcd.c **** 
 2033              		.loc 1 598 0
 2034 00a6 2268     		ldr	r2, [r4]
 2035 00a8 9369     		ldr	r3, [r2, #24]
 2036 00aa 23F01003 		bic	r3, r3, #16
 2037 00ae 9361     		str	r3, [r2, #24]
 600:Drivers/STM32L4xx_HAL_Driver/Src/stm32l4xx_hal_hcd.c **** 
 2038              		.loc 1 600 0
ARM GAS  /tmp/cckZR06T.s 			page 70


 2039 00b0 2046     		mov	r0, r4
 2040 00b2 FFF7FEFF 		bl	HCD_RXQLVL_IRQHandler
 2041              	.LVL177:
 602:Drivers/STM32L4xx_HAL_Driver/Src/stm32l4xx_hal_hcd.c ****     }
 2042              		.loc 1 602 0
 2043 00b6 2268     		ldr	r2, [r4]
 2044 00b8 9369     		ldr	r3, [r2, #24]
 2045 00ba 43F01003 		orr	r3, r3, #16
 2046 00be 9361     		str	r3, [r2, #24]
 2047 00c0 A6E7     		b	.L142
 2048              	.L158:
 542:Drivers/STM32L4xx_HAL_Driver/Src/stm32l4xx_hal_hcd.c ****                       USB_OTG_HPRT_PENCHNG | USB_OTG_HPRT_POCCHNG);
 2049              		.loc 1 542 0
 2050 00c2 D5F84034 		ldr	r3, [r5, #1088]
 2051 00c6 23F02E03 		bic	r3, r3, #46
 2052 00ca C5F84034 		str	r3, [r5, #1088]
 549:Drivers/STM32L4xx_HAL_Driver/Src/stm32l4xx_hal_hcd.c **** #endif /* USE_HAL_HCD_REGISTER_CALLBACKS */
 2053              		.loc 1 549 0
 2054 00ce 2046     		mov	r0, r4
 2055 00d0 FFF7FEFF 		bl	HAL_HCD_Disconnect_Callback
 2056              	.LVL178:
 552:Drivers/STM32L4xx_HAL_Driver/Src/stm32l4xx_hal_hcd.c ****       __HAL_HCD_CLEAR_FLAG(hhcd, USB_OTG_GINTSTS_DISCINT);
 2057              		.loc 1 552 0
 2058 00d4 0121     		movs	r1, #1
 2059 00d6 2068     		ldr	r0, [r4]
 2060 00d8 FFF7FEFF 		bl	USB_InitFSLSPClkSel
 2061              	.LVL179:
 553:Drivers/STM32L4xx_HAL_Driver/Src/stm32l4xx_hal_hcd.c ****     }
 2062              		.loc 1 553 0
 2063 00dc 2368     		ldr	r3, [r4]
 2064 00de 4FF00052 		mov	r2, #536870912
 2065 00e2 5A61     		str	r2, [r3, #20]
 2066 00e4 C7E7     		b	.L148
 2067              	.L159:
 559:Drivers/STM32L4xx_HAL_Driver/Src/stm32l4xx_hal_hcd.c ****     }
 2068              		.loc 1 559 0
 2069 00e6 2046     		mov	r0, r4
 2070 00e8 FFF7FEFF 		bl	HCD_Port_IRQHandler
 2071              	.LVL180:
 2072 00ec C9E7     		b	.L149
 2073              	.L160:
 568:Drivers/STM32L4xx_HAL_Driver/Src/stm32l4xx_hal_hcd.c **** #endif /* USE_HAL_HCD_REGISTER_CALLBACKS */
 2074              		.loc 1 568 0
 2075 00ee 2046     		mov	r0, r4
 2076 00f0 FFF7FEFF 		bl	HAL_HCD_SOF_Callback
 2077              	.LVL181:
 571:Drivers/STM32L4xx_HAL_Driver/Src/stm32l4xx_hal_hcd.c ****     }
 2078              		.loc 1 571 0
 2079 00f4 2368     		ldr	r3, [r4]
 2080 00f6 0822     		movs	r2, #8
 2081 00f8 5A61     		str	r2, [r3, #20]
 2082 00fa C8E7     		b	.L150
 2083              	.L161:
 577:Drivers/STM32L4xx_HAL_Driver/Src/stm32l4xx_hal_hcd.c ****       for (i = 0U; i < hhcd->Init.Host_channels; i++)
 2084              		.loc 1 577 0
 2085 00fc 2068     		ldr	r0, [r4]
 2086 00fe FFF7FEFF 		bl	USB_HC_ReadInterrupt
ARM GAS  /tmp/cckZR06T.s 			page 71


 2087              	.LVL182:
 2088 0102 0746     		mov	r7, r0
 2089              	.LVL183:
 578:Drivers/STM32L4xx_HAL_Driver/Src/stm32l4xx_hal_hcd.c ****       {
 2090              		.loc 1 578 0
 2091 0104 0026     		movs	r6, #0
 2092 0106 04E0     		b	.L152
 2093              	.LVL184:
 2094              	.L154:
 588:Drivers/STM32L4xx_HAL_Driver/Src/stm32l4xx_hal_hcd.c ****           }
 2095              		.loc 1 588 0
 2096 0108 F1B2     		uxtb	r1, r6
 2097 010a 2046     		mov	r0, r4
 2098 010c FFF7FEFF 		bl	HCD_HC_OUT_IRQHandler
 2099              	.LVL185:
 2100              	.L153:
 578:Drivers/STM32L4xx_HAL_Driver/Src/stm32l4xx_hal_hcd.c ****       {
 2101              		.loc 1 578 0 discriminator 2
 2102 0110 0136     		adds	r6, r6, #1
 2103              	.LVL186:
 2104              	.L152:
 578:Drivers/STM32L4xx_HAL_Driver/Src/stm32l4xx_hal_hcd.c ****       {
 2105              		.loc 1 578 0 is_stmt 0 discriminator 1
 2106 0112 A368     		ldr	r3, [r4, #8]
 2107 0114 B342     		cmp	r3, r6
 2108 0116 12D9     		bls	.L162
 580:Drivers/STM32L4xx_HAL_Driver/Src/stm32l4xx_hal_hcd.c ****         {
 2109              		.loc 1 580 0 is_stmt 1
 2110 0118 06F00F03 		and	r3, r6, #15
 2111 011c 27FA03F3 		lsr	r3, r7, r3
 2112 0120 13F0010F 		tst	r3, #1
 2113 0124 F4D0     		beq	.L153
 582:Drivers/STM32L4xx_HAL_Driver/Src/stm32l4xx_hal_hcd.c ****           {
 2114              		.loc 1 582 0
 2115 0126 05EB4613 		add	r3, r5, r6, lsl #5
 2116 012a D3F80035 		ldr	r3, [r3, #1280]
 2117 012e 13F4004F 		tst	r3, #32768
 2118 0132 E9D0     		beq	.L154
 584:Drivers/STM32L4xx_HAL_Driver/Src/stm32l4xx_hal_hcd.c ****           }
 2119              		.loc 1 584 0
 2120 0134 F1B2     		uxtb	r1, r6
 2121 0136 2046     		mov	r0, r4
 2122 0138 FFF7FEFF 		bl	HCD_HC_IN_IRQHandler
 2123              	.LVL187:
 2124 013c E8E7     		b	.L153
 2125              	.L162:
 592:Drivers/STM32L4xx_HAL_Driver/Src/stm32l4xx_hal_hcd.c ****     }
 2126              		.loc 1 592 0
 2127 013e 2368     		ldr	r3, [r4]
 2128 0140 4FF00072 		mov	r2, #33554432
 2129 0144 5A61     		str	r2, [r3, #20]
 2130 0146 A8E7     		b	.L151
 2131              		.cfi_endproc
 2132              	.LFE130:
 2134              		.section	.text.HAL_HCD_Start,"ax",%progbits
 2135              		.align	1
 2136              		.global	HAL_HCD_Start
ARM GAS  /tmp/cckZR06T.s 			page 72


 2137              		.syntax unified
 2138              		.thumb
 2139              		.thumb_func
 2140              		.fpu fpv4-sp-d16
 2142              	HAL_HCD_Start:
 2143              	.LFB137:
1010:Drivers/STM32L4xx_HAL_Driver/Src/stm32l4xx_hal_hcd.c ****   __HAL_LOCK(hhcd);
 2144              		.loc 1 1010 0
 2145              		.cfi_startproc
 2146              		@ args = 0, pretend = 0, frame = 0
 2147              		@ frame_needed = 0, uses_anonymous_args = 0
 2148              	.LVL188:
 2149 0000 38B5     		push	{r3, r4, r5, lr}
 2150              	.LCFI22:
 2151              		.cfi_def_cfa_offset 16
 2152              		.cfi_offset 3, -16
 2153              		.cfi_offset 4, -12
 2154              		.cfi_offset 5, -8
 2155              		.cfi_offset 14, -4
1011:Drivers/STM32L4xx_HAL_Driver/Src/stm32l4xx_hal_hcd.c ****   __HAL_HCD_ENABLE(hhcd);
 2156              		.loc 1 1011 0
 2157 0002 90F8B832 		ldrb	r3, [r0, #696]	@ zero_extendqisi2
 2158 0006 012B     		cmp	r3, #1
 2159 0008 0ED0     		beq	.L165
 2160 000a 0446     		mov	r4, r0
1011:Drivers/STM32L4xx_HAL_Driver/Src/stm32l4xx_hal_hcd.c ****   __HAL_HCD_ENABLE(hhcd);
 2161              		.loc 1 1011 0 is_stmt 0 discriminator 2
 2162 000c 0125     		movs	r5, #1
 2163 000e 80F8B852 		strb	r5, [r0, #696]
1012:Drivers/STM32L4xx_HAL_Driver/Src/stm32l4xx_hal_hcd.c ****   (void)USB_DriveVbus(hhcd->Instance, 1U);
 2164              		.loc 1 1012 0 is_stmt 1 discriminator 2
 2165 0012 0068     		ldr	r0, [r0]
 2166              	.LVL189:
 2167 0014 FFF7FEFF 		bl	USB_EnableGlobalInt
 2168              	.LVL190:
1013:Drivers/STM32L4xx_HAL_Driver/Src/stm32l4xx_hal_hcd.c ****   __HAL_UNLOCK(hhcd);
 2169              		.loc 1 1013 0 discriminator 2
 2170 0018 2946     		mov	r1, r5
 2171 001a 2068     		ldr	r0, [r4]
 2172 001c FFF7FEFF 		bl	USB_DriveVbus
 2173              	.LVL191:
1014:Drivers/STM32L4xx_HAL_Driver/Src/stm32l4xx_hal_hcd.c ****   return HAL_OK;
 2174              		.loc 1 1014 0 discriminator 2
 2175 0020 0020     		movs	r0, #0
 2176 0022 84F8B802 		strb	r0, [r4, #696]
 2177              	.LVL192:
 2178              	.L164:
1016:Drivers/STM32L4xx_HAL_Driver/Src/stm32l4xx_hal_hcd.c **** 
 2179              		.loc 1 1016 0
 2180 0026 38BD     		pop	{r3, r4, r5, pc}
 2181              	.LVL193:
 2182              	.L165:
1011:Drivers/STM32L4xx_HAL_Driver/Src/stm32l4xx_hal_hcd.c ****   __HAL_HCD_ENABLE(hhcd);
 2183              		.loc 1 1011 0
 2184 0028 0220     		movs	r0, #2
 2185              	.LVL194:
 2186 002a FCE7     		b	.L164
ARM GAS  /tmp/cckZR06T.s 			page 73


 2187              		.cfi_endproc
 2188              	.LFE137:
 2190              		.section	.text.HAL_HCD_Stop,"ax",%progbits
 2191              		.align	1
 2192              		.global	HAL_HCD_Stop
 2193              		.syntax unified
 2194              		.thumb
 2195              		.thumb_func
 2196              		.fpu fpv4-sp-d16
 2198              	HAL_HCD_Stop:
 2199              	.LFB138:
1025:Drivers/STM32L4xx_HAL_Driver/Src/stm32l4xx_hal_hcd.c ****   __HAL_LOCK(hhcd);
 2200              		.loc 1 1025 0
 2201              		.cfi_startproc
 2202              		@ args = 0, pretend = 0, frame = 0
 2203              		@ frame_needed = 0, uses_anonymous_args = 0
 2204              	.LVL195:
1026:Drivers/STM32L4xx_HAL_Driver/Src/stm32l4xx_hal_hcd.c ****   (void)USB_StopHost(hhcd->Instance);
 2205              		.loc 1 1026 0
 2206 0000 90F8B832 		ldrb	r3, [r0, #696]	@ zero_extendqisi2
 2207 0004 012B     		cmp	r3, #1
 2208 0006 0BD0     		beq	.L169
1025:Drivers/STM32L4xx_HAL_Driver/Src/stm32l4xx_hal_hcd.c ****   __HAL_LOCK(hhcd);
 2209              		.loc 1 1025 0 discriminator 2
 2210 0008 10B5     		push	{r4, lr}
 2211              	.LCFI23:
 2212              		.cfi_def_cfa_offset 8
 2213              		.cfi_offset 4, -8
 2214              		.cfi_offset 14, -4
 2215 000a 0446     		mov	r4, r0
1026:Drivers/STM32L4xx_HAL_Driver/Src/stm32l4xx_hal_hcd.c ****   (void)USB_StopHost(hhcd->Instance);
 2216              		.loc 1 1026 0 discriminator 2
 2217 000c 0123     		movs	r3, #1
 2218 000e 80F8B832 		strb	r3, [r0, #696]
1027:Drivers/STM32L4xx_HAL_Driver/Src/stm32l4xx_hal_hcd.c ****   __HAL_UNLOCK(hhcd);
 2219              		.loc 1 1027 0 discriminator 2
 2220 0012 0068     		ldr	r0, [r0]
 2221              	.LVL196:
 2222 0014 FFF7FEFF 		bl	USB_StopHost
 2223              	.LVL197:
1028:Drivers/STM32L4xx_HAL_Driver/Src/stm32l4xx_hal_hcd.c ****   return HAL_OK;
 2224              		.loc 1 1028 0 discriminator 2
 2225 0018 0020     		movs	r0, #0
 2226 001a 84F8B802 		strb	r0, [r4, #696]
1030:Drivers/STM32L4xx_HAL_Driver/Src/stm32l4xx_hal_hcd.c **** 
 2227              		.loc 1 1030 0 discriminator 2
 2228 001e 10BD     		pop	{r4, pc}
 2229              	.LVL198:
 2230              	.L169:
 2231              	.LCFI24:
 2232              		.cfi_def_cfa_offset 0
 2233              		.cfi_restore 4
 2234              		.cfi_restore 14
1026:Drivers/STM32L4xx_HAL_Driver/Src/stm32l4xx_hal_hcd.c ****   (void)USB_StopHost(hhcd->Instance);
 2235              		.loc 1 1026 0
 2236 0020 0220     		movs	r0, #2
 2237              	.LVL199:
ARM GAS  /tmp/cckZR06T.s 			page 74


1030:Drivers/STM32L4xx_HAL_Driver/Src/stm32l4xx_hal_hcd.c **** 
 2238              		.loc 1 1030 0
 2239 0022 7047     		bx	lr
 2240              		.cfi_endproc
 2241              	.LFE138:
 2243              		.section	.text.HAL_HCD_ResetPort,"ax",%progbits
 2244              		.align	1
 2245              		.global	HAL_HCD_ResetPort
 2246              		.syntax unified
 2247              		.thumb
 2248              		.thumb_func
 2249              		.fpu fpv4-sp-d16
 2251              	HAL_HCD_ResetPort:
 2252              	.LFB139:
1038:Drivers/STM32L4xx_HAL_Driver/Src/stm32l4xx_hal_hcd.c ****   return (USB_ResetPort(hhcd->Instance));
 2253              		.loc 1 1038 0
 2254              		.cfi_startproc
 2255              		@ args = 0, pretend = 0, frame = 0
 2256              		@ frame_needed = 0, uses_anonymous_args = 0
 2257              	.LVL200:
 2258 0000 08B5     		push	{r3, lr}
 2259              	.LCFI25:
 2260              		.cfi_def_cfa_offset 8
 2261              		.cfi_offset 3, -8
 2262              		.cfi_offset 14, -4
1039:Drivers/STM32L4xx_HAL_Driver/Src/stm32l4xx_hal_hcd.c **** }
 2263              		.loc 1 1039 0
 2264 0002 0068     		ldr	r0, [r0]
 2265              	.LVL201:
 2266 0004 FFF7FEFF 		bl	USB_ResetPort
 2267              	.LVL202:
1040:Drivers/STM32L4xx_HAL_Driver/Src/stm32l4xx_hal_hcd.c **** 
 2268              		.loc 1 1040 0
 2269 0008 08BD     		pop	{r3, pc}
 2270              		.cfi_endproc
 2271              	.LFE139:
 2273              		.section	.text.HAL_HCD_GetState,"ax",%progbits
 2274              		.align	1
 2275              		.global	HAL_HCD_GetState
 2276              		.syntax unified
 2277              		.thumb
 2278              		.thumb_func
 2279              		.fpu fpv4-sp-d16
 2281              	HAL_HCD_GetState:
 2282              	.LFB140:
1067:Drivers/STM32L4xx_HAL_Driver/Src/stm32l4xx_hal_hcd.c ****   return hhcd->State;
 2283              		.loc 1 1067 0
 2284              		.cfi_startproc
 2285              		@ args = 0, pretend = 0, frame = 0
 2286              		@ frame_needed = 0, uses_anonymous_args = 0
 2287              		@ link register save eliminated.
 2288              	.LVL203:
1068:Drivers/STM32L4xx_HAL_Driver/Src/stm32l4xx_hal_hcd.c **** }
 2289              		.loc 1 1068 0
 2290 0000 90F8B902 		ldrb	r0, [r0, #697]	@ zero_extendqisi2
 2291              	.LVL204:
1069:Drivers/STM32L4xx_HAL_Driver/Src/stm32l4xx_hal_hcd.c **** 
ARM GAS  /tmp/cckZR06T.s 			page 75


 2292              		.loc 1 1069 0
 2293 0004 7047     		bx	lr
 2294              		.cfi_endproc
 2295              	.LFE140:
 2297              		.section	.text.HAL_HCD_HC_GetURBState,"ax",%progbits
 2298              		.align	1
 2299              		.global	HAL_HCD_HC_GetURBState
 2300              		.syntax unified
 2301              		.thumb
 2302              		.thumb_func
 2303              		.fpu fpv4-sp-d16
 2305              	HAL_HCD_HC_GetURBState:
 2306              	.LFB141:
1086:Drivers/STM32L4xx_HAL_Driver/Src/stm32l4xx_hal_hcd.c ****   return hhcd->hc[chnum].urb_state;
 2307              		.loc 1 1086 0
 2308              		.cfi_startproc
 2309              		@ args = 0, pretend = 0, frame = 0
 2310              		@ frame_needed = 0, uses_anonymous_args = 0
 2311              		@ link register save eliminated.
 2312              	.LVL205:
1087:Drivers/STM32L4xx_HAL_Driver/Src/stm32l4xx_hal_hcd.c **** }
 2313              		.loc 1 1087 0
 2314 0000 01EB8101 		add	r1, r1, r1, lsl #2
 2315              	.LVL206:
 2316 0004 CB00     		lsls	r3, r1, #3
 2317 0006 1844     		add	r0, r0, r3
 2318              	.LVL207:
1088:Drivers/STM32L4xx_HAL_Driver/Src/stm32l4xx_hal_hcd.c **** 
 2319              		.loc 1 1088 0
 2320 0008 90F85C00 		ldrb	r0, [r0, #92]	@ zero_extendqisi2
 2321 000c 7047     		bx	lr
 2322              		.cfi_endproc
 2323              	.LFE141:
 2325              		.section	.text.HAL_HCD_HC_GetXferCount,"ax",%progbits
 2326              		.align	1
 2327              		.global	HAL_HCD_HC_GetXferCount
 2328              		.syntax unified
 2329              		.thumb
 2330              		.thumb_func
 2331              		.fpu fpv4-sp-d16
 2333              	HAL_HCD_HC_GetXferCount:
 2334              	.LFB142:
1099:Drivers/STM32L4xx_HAL_Driver/Src/stm32l4xx_hal_hcd.c ****   return hhcd->hc[chnum].xfer_count;
 2335              		.loc 1 1099 0
 2336              		.cfi_startproc
 2337              		@ args = 0, pretend = 0, frame = 0
 2338              		@ frame_needed = 0, uses_anonymous_args = 0
 2339              		@ link register save eliminated.
 2340              	.LVL208:
1100:Drivers/STM32L4xx_HAL_Driver/Src/stm32l4xx_hal_hcd.c **** }
 2341              		.loc 1 1100 0
 2342 0000 01EB8101 		add	r1, r1, r1, lsl #2
 2343              	.LVL209:
 2344 0004 CB00     		lsls	r3, r1, #3
 2345 0006 1844     		add	r0, r0, r3
 2346              	.LVL210:
1101:Drivers/STM32L4xx_HAL_Driver/Src/stm32l4xx_hal_hcd.c **** 
ARM GAS  /tmp/cckZR06T.s 			page 76


 2347              		.loc 1 1101 0
 2348 0008 C06C     		ldr	r0, [r0, #76]
 2349 000a 7047     		bx	lr
 2350              		.cfi_endproc
 2351              	.LFE142:
 2353              		.section	.text.HAL_HCD_HC_GetState,"ax",%progbits
 2354              		.align	1
 2355              		.global	HAL_HCD_HC_GetState
 2356              		.syntax unified
 2357              		.thumb
 2358              		.thumb_func
 2359              		.fpu fpv4-sp-d16
 2361              	HAL_HCD_HC_GetState:
 2362              	.LFB143:
1121:Drivers/STM32L4xx_HAL_Driver/Src/stm32l4xx_hal_hcd.c ****   return hhcd->hc[chnum].state;
 2363              		.loc 1 1121 0
 2364              		.cfi_startproc
 2365              		@ args = 0, pretend = 0, frame = 0
 2366              		@ frame_needed = 0, uses_anonymous_args = 0
 2367              		@ link register save eliminated.
 2368              	.LVL211:
1122:Drivers/STM32L4xx_HAL_Driver/Src/stm32l4xx_hal_hcd.c **** }
 2369              		.loc 1 1122 0
 2370 0000 01EB8101 		add	r1, r1, r1, lsl #2
 2371              	.LVL212:
 2372 0004 CB00     		lsls	r3, r1, #3
 2373 0006 1844     		add	r0, r0, r3
 2374              	.LVL213:
1123:Drivers/STM32L4xx_HAL_Driver/Src/stm32l4xx_hal_hcd.c **** 
 2375              		.loc 1 1123 0
 2376 0008 90F85D00 		ldrb	r0, [r0, #93]	@ zero_extendqisi2
 2377 000c 7047     		bx	lr
 2378              		.cfi_endproc
 2379              	.LFE143:
 2381              		.section	.text.HAL_HCD_GetCurrentFrame,"ax",%progbits
 2382              		.align	1
 2383              		.global	HAL_HCD_GetCurrentFrame
 2384              		.syntax unified
 2385              		.thumb
 2386              		.thumb_func
 2387              		.fpu fpv4-sp-d16
 2389              	HAL_HCD_GetCurrentFrame:
 2390              	.LFB144:
1131:Drivers/STM32L4xx_HAL_Driver/Src/stm32l4xx_hal_hcd.c ****   return (USB_GetCurrentFrame(hhcd->Instance));
 2391              		.loc 1 1131 0
 2392              		.cfi_startproc
 2393              		@ args = 0, pretend = 0, frame = 0
 2394              		@ frame_needed = 0, uses_anonymous_args = 0
 2395              	.LVL214:
 2396 0000 08B5     		push	{r3, lr}
 2397              	.LCFI26:
 2398              		.cfi_def_cfa_offset 8
 2399              		.cfi_offset 3, -8
 2400              		.cfi_offset 14, -4
1132:Drivers/STM32L4xx_HAL_Driver/Src/stm32l4xx_hal_hcd.c **** }
 2401              		.loc 1 1132 0
 2402 0002 0068     		ldr	r0, [r0]
ARM GAS  /tmp/cckZR06T.s 			page 77


 2403              	.LVL215:
 2404 0004 FFF7FEFF 		bl	USB_GetCurrentFrame
 2405              	.LVL216:
1133:Drivers/STM32L4xx_HAL_Driver/Src/stm32l4xx_hal_hcd.c **** 
 2406              		.loc 1 1133 0
 2407 0008 08BD     		pop	{r3, pc}
 2408              		.cfi_endproc
 2409              	.LFE144:
 2411              		.section	.text.HAL_HCD_GetCurrentSpeed,"ax",%progbits
 2412              		.align	1
 2413              		.global	HAL_HCD_GetCurrentSpeed
 2414              		.syntax unified
 2415              		.thumb
 2416              		.thumb_func
 2417              		.fpu fpv4-sp-d16
 2419              	HAL_HCD_GetCurrentSpeed:
 2420              	.LFB145:
1141:Drivers/STM32L4xx_HAL_Driver/Src/stm32l4xx_hal_hcd.c ****   return (USB_GetHostSpeed(hhcd->Instance));
 2421              		.loc 1 1141 0
 2422              		.cfi_startproc
 2423              		@ args = 0, pretend = 0, frame = 0
 2424              		@ frame_needed = 0, uses_anonymous_args = 0
 2425              	.LVL217:
 2426 0000 08B5     		push	{r3, lr}
 2427              	.LCFI27:
 2428              		.cfi_def_cfa_offset 8
 2429              		.cfi_offset 3, -8
 2430              		.cfi_offset 14, -4
1142:Drivers/STM32L4xx_HAL_Driver/Src/stm32l4xx_hal_hcd.c **** }
 2431              		.loc 1 1142 0
 2432 0002 0068     		ldr	r0, [r0]
 2433              	.LVL218:
 2434 0004 FFF7FEFF 		bl	USB_GetHostSpeed
 2435              	.LVL219:
1143:Drivers/STM32L4xx_HAL_Driver/Src/stm32l4xx_hal_hcd.c **** 
 2436              		.loc 1 1143 0
 2437 0008 08BD     		pop	{r3, pc}
 2438              		.cfi_endproc
 2439              	.LFE145:
 2441              		.text
 2442              	.Letext0:
 2443              		.file 2 "/usr/include/newlib/machine/_default_types.h"
 2444              		.file 3 "/usr/include/newlib/sys/_stdint.h"
 2445              		.file 4 "Drivers/CMSIS/Include/core_cm4.h"
 2446              		.file 5 "Drivers/CMSIS/Device/ST/STM32L4xx/Include/system_stm32l4xx.h"
 2447              		.file 6 "Drivers/CMSIS/Device/ST/STM32L4xx/Include/stm32l476xx.h"
 2448              		.file 7 "Drivers/STM32L4xx_HAL_Driver/Inc/stm32l4xx_hal_def.h"
 2449              		.file 8 "Drivers/STM32L4xx_HAL_Driver/Inc/stm32l4xx_ll_usb.h"
 2450              		.file 9 "Drivers/STM32L4xx_HAL_Driver/Inc/stm32l4xx_hal_hcd.h"
 2451              		.file 10 "Drivers/STM32L4xx_HAL_Driver/Inc/stm32l4xx_hal.h"
ARM GAS  /tmp/cckZR06T.s 			page 78


DEFINED SYMBOLS
                            *ABS*:0000000000000000 stm32l4xx_hal_hcd.c
     /tmp/cckZR06T.s:18     .text.HCD_RXQLVL_IRQHandler:0000000000000000 $t
     /tmp/cckZR06T.s:24     .text.HCD_RXQLVL_IRQHandler:0000000000000000 HCD_RXQLVL_IRQHandler
     /tmp/cckZR06T.s:121    .text.HCD_RXQLVL_IRQHandler:0000000000000078 $d
     /tmp/cckZR06T.s:126    .text.HAL_HCD_HC_Init:0000000000000000 $t
     /tmp/cckZR06T.s:133    .text.HAL_HCD_HC_Init:0000000000000000 HAL_HCD_HC_Init
     /tmp/cckZR06T.s:235    .text.HAL_HCD_HC_Halt:0000000000000000 $t
     /tmp/cckZR06T.s:242    .text.HAL_HCD_HC_Halt:0000000000000000 HAL_HCD_HC_Halt
     /tmp/cckZR06T.s:288    .text.HAL_HCD_MspInit:0000000000000000 $t
     /tmp/cckZR06T.s:295    .text.HAL_HCD_MspInit:0000000000000000 HAL_HCD_MspInit
     /tmp/cckZR06T.s:309    .text.HAL_HCD_Init:0000000000000000 $t
     /tmp/cckZR06T.s:316    .text.HAL_HCD_Init:0000000000000000 HAL_HCD_Init
     /tmp/cckZR06T.s:425    .text.HAL_HCD_MspDeInit:0000000000000000 $t
     /tmp/cckZR06T.s:432    .text.HAL_HCD_MspDeInit:0000000000000000 HAL_HCD_MspDeInit
     /tmp/cckZR06T.s:446    .text.HAL_HCD_DeInit:0000000000000000 $t
     /tmp/cckZR06T.s:453    .text.HAL_HCD_DeInit:0000000000000000 HAL_HCD_DeInit
     /tmp/cckZR06T.s:499    .text.HAL_HCD_HC_SubmitRequest:0000000000000000 $t
     /tmp/cckZR06T.s:506    .text.HAL_HCD_HC_SubmitRequest:0000000000000000 HAL_HCD_HC_SubmitRequest
     /tmp/cckZR06T.s:546    .text.HAL_HCD_HC_SubmitRequest:0000000000000034 $d
     /tmp/cckZR06T.s:550    .text.HAL_HCD_HC_SubmitRequest:0000000000000038 $t
     /tmp/cckZR06T.s:748    .text.HAL_HCD_SOF_Callback:0000000000000000 $t
     /tmp/cckZR06T.s:755    .text.HAL_HCD_SOF_Callback:0000000000000000 HAL_HCD_SOF_Callback
     /tmp/cckZR06T.s:769    .text.HAL_HCD_Connect_Callback:0000000000000000 $t
     /tmp/cckZR06T.s:776    .text.HAL_HCD_Connect_Callback:0000000000000000 HAL_HCD_Connect_Callback
     /tmp/cckZR06T.s:790    .text.HAL_HCD_Disconnect_Callback:0000000000000000 $t
     /tmp/cckZR06T.s:797    .text.HAL_HCD_Disconnect_Callback:0000000000000000 HAL_HCD_Disconnect_Callback
     /tmp/cckZR06T.s:811    .text.HAL_HCD_PortEnabled_Callback:0000000000000000 $t
     /tmp/cckZR06T.s:818    .text.HAL_HCD_PortEnabled_Callback:0000000000000000 HAL_HCD_PortEnabled_Callback
     /tmp/cckZR06T.s:832    .text.HAL_HCD_PortDisabled_Callback:0000000000000000 $t
     /tmp/cckZR06T.s:839    .text.HAL_HCD_PortDisabled_Callback:0000000000000000 HAL_HCD_PortDisabled_Callback
     /tmp/cckZR06T.s:853    .text.HCD_Port_IRQHandler:0000000000000000 $t
     /tmp/cckZR06T.s:859    .text.HCD_Port_IRQHandler:0000000000000000 HCD_Port_IRQHandler
     /tmp/cckZR06T.s:1008   .text.HAL_HCD_HC_NotifyURBChange_Callback:0000000000000000 $t
     /tmp/cckZR06T.s:1015   .text.HAL_HCD_HC_NotifyURBChange_Callback:0000000000000000 HAL_HCD_HC_NotifyURBChange_Callback
     /tmp/cckZR06T.s:1029   .text.HCD_HC_IN_IRQHandler:0000000000000000 $t
     /tmp/cckZR06T.s:1035   .text.HCD_HC_IN_IRQHandler:0000000000000000 HCD_HC_IN_IRQHandler
     /tmp/cckZR06T.s:1467   .text.HCD_HC_OUT_IRQHandler:0000000000000000 $t
     /tmp/cckZR06T.s:1473   .text.HCD_HC_OUT_IRQHandler:0000000000000000 HCD_HC_OUT_IRQHandler
     /tmp/cckZR06T.s:1910   .text.HAL_HCD_IRQHandler:0000000000000000 $t
     /tmp/cckZR06T.s:1917   .text.HAL_HCD_IRQHandler:0000000000000000 HAL_HCD_IRQHandler
     /tmp/cckZR06T.s:2135   .text.HAL_HCD_Start:0000000000000000 $t
     /tmp/cckZR06T.s:2142   .text.HAL_HCD_Start:0000000000000000 HAL_HCD_Start
     /tmp/cckZR06T.s:2191   .text.HAL_HCD_Stop:0000000000000000 $t
     /tmp/cckZR06T.s:2198   .text.HAL_HCD_Stop:0000000000000000 HAL_HCD_Stop
     /tmp/cckZR06T.s:2244   .text.HAL_HCD_ResetPort:0000000000000000 $t
     /tmp/cckZR06T.s:2251   .text.HAL_HCD_ResetPort:0000000000000000 HAL_HCD_ResetPort
     /tmp/cckZR06T.s:2274   .text.HAL_HCD_GetState:0000000000000000 $t
     /tmp/cckZR06T.s:2281   .text.HAL_HCD_GetState:0000000000000000 HAL_HCD_GetState
     /tmp/cckZR06T.s:2298   .text.HAL_HCD_HC_GetURBState:0000000000000000 $t
     /tmp/cckZR06T.s:2305   .text.HAL_HCD_HC_GetURBState:0000000000000000 HAL_HCD_HC_GetURBState
     /tmp/cckZR06T.s:2326   .text.HAL_HCD_HC_GetXferCount:0000000000000000 $t
     /tmp/cckZR06T.s:2333   .text.HAL_HCD_HC_GetXferCount:0000000000000000 HAL_HCD_HC_GetXferCount
     /tmp/cckZR06T.s:2354   .text.HAL_HCD_HC_GetState:0000000000000000 $t
     /tmp/cckZR06T.s:2361   .text.HAL_HCD_HC_GetState:0000000000000000 HAL_HCD_HC_GetState
     /tmp/cckZR06T.s:2382   .text.HAL_HCD_GetCurrentFrame:0000000000000000 $t
     /tmp/cckZR06T.s:2389   .text.HAL_HCD_GetCurrentFrame:0000000000000000 HAL_HCD_GetCurrentFrame
ARM GAS  /tmp/cckZR06T.s 			page 79


     /tmp/cckZR06T.s:2412   .text.HAL_HCD_GetCurrentSpeed:0000000000000000 $t
     /tmp/cckZR06T.s:2419   .text.HAL_HCD_GetCurrentSpeed:0000000000000000 HAL_HCD_GetCurrentSpeed

UNDEFINED SYMBOLS
USB_ReadPacket
USB_HC_Init
USB_HC_Halt
USB_DisableGlobalInt
USB_CoreInit
USB_SetCurrentMode
USB_HostInit
USB_HC_StartXfer
USB_InitFSLSPClkSel
USB_GetMode
USB_ReadInterrupts
USB_HC_ReadInterrupt
USB_EnableGlobalInt
USB_DriveVbus
USB_StopHost
USB_ResetPort
USB_GetCurrentFrame
USB_GetHostSpeed
